
Scoreboard.elf:     file format elf32-avr

Sections:
Idx Name          Size      VMA       LMA       File off  Algn
  0 .data         0000000e  00800100  000048e6  0000499a  2**0
                  CONTENTS, ALLOC, LOAD, DATA
  1 .text         000048e6  00000000  00000000  000000b4  2**1
                  CONTENTS, ALLOC, LOAD, READONLY, CODE
  2 .bss          0000040c  0080010e  0080010e  000049a8  2**0
                  ALLOC
  3 .eeprom       0000001d  00810000  00810000  000049a8  2**0
                  CONTENTS, ALLOC, LOAD, DATA
  4 .comment      00000030  00000000  00000000  000049c5  2**0
                  CONTENTS, READONLY
  5 .note.gnu.avr.deviceinfo 00000040  00000000  00000000  000049f8  2**2
                  CONTENTS, READONLY
  6 .debug_aranges 00000040  00000000  00000000  00004a38  2**3
                  CONTENTS, READONLY, DEBUGGING
  7 .debug_info   00000af1  00000000  00000000  00004a78  2**0
                  CONTENTS, READONLY, DEBUGGING
  8 .debug_abbrev 0000095c  00000000  00000000  00005569  2**0
                  CONTENTS, READONLY, DEBUGGING
  9 .debug_line   000002e2  00000000  00000000  00005ec5  2**0
                  CONTENTS, READONLY, DEBUGGING
 10 .debug_str    0000035a  00000000  00000000  000061a7  2**0
                  CONTENTS, READONLY, DEBUGGING

Disassembly of section .text:

00000000 <__vectors>:
       0:	0c 94 0d 01 	jmp	0x21a	; 0x21a <__ctors_end>
       4:	0c 94 2a 01 	jmp	0x254	; 0x254 <__bad_interrupt>
       8:	0c 94 2a 01 	jmp	0x254	; 0x254 <__bad_interrupt>
       c:	0c 94 fc 1c 	jmp	0x39f8	; 0x39f8 <__vector_3>
      10:	0c 94 2a 01 	jmp	0x254	; 0x254 <__bad_interrupt>
      14:	0c 94 2a 01 	jmp	0x254	; 0x254 <__bad_interrupt>
      18:	0c 94 2a 01 	jmp	0x254	; 0x254 <__bad_interrupt>
      1c:	0c 94 61 1e 	jmp	0x3cc2	; 0x3cc2 <__vector_7>
      20:	0c 94 2a 01 	jmp	0x254	; 0x254 <__bad_interrupt>
      24:	0c 94 2a 01 	jmp	0x254	; 0x254 <__bad_interrupt>
      28:	0c 94 2a 01 	jmp	0x254	; 0x254 <__bad_interrupt>
      2c:	0c 94 c5 0c 	jmp	0x198a	; 0x198a <__vector_11>
      30:	0c 94 2a 01 	jmp	0x254	; 0x254 <__bad_interrupt>
      34:	0c 94 2a 01 	jmp	0x254	; 0x254 <__bad_interrupt>
      38:	0c 94 2a 01 	jmp	0x254	; 0x254 <__bad_interrupt>
      3c:	0c 94 2a 01 	jmp	0x254	; 0x254 <__bad_interrupt>
      40:	0c 94 2a 01 	jmp	0x254	; 0x254 <__bad_interrupt>
      44:	0c 94 2a 01 	jmp	0x254	; 0x254 <__bad_interrupt>
      48:	0c 94 2b 0b 	jmp	0x1656	; 0x1656 <__vector_18>
      4c:	0c 94 2a 01 	jmp	0x254	; 0x254 <__bad_interrupt>
      50:	0c 94 23 1a 	jmp	0x3446	; 0x3446 <__vector_20>
      54:	0c 94 f1 05 	jmp	0xbe2	; 0xbe2 <__vector_21>
      58:	0c 94 22 06 	jmp	0xc44	; 0xc44 <__vector_22>
      5c:	0c 94 2a 01 	jmp	0x254	; 0x254 <__bad_interrupt>
      60:	0c 94 2a 01 	jmp	0x254	; 0x254 <__bad_interrupt>
      64:	0c 94 2a 01 	jmp	0x254	; 0x254 <__bad_interrupt>
      68:	0c 94 2a 01 	jmp	0x254	; 0x254 <__bad_interrupt>
      6c:	0c 94 2a 01 	jmp	0x254	; 0x254 <__bad_interrupt>
      70:	0c 94 0c 07 	jmp	0xe18	; 0xe18 <__vector_28>
      74:	0c 94 41 07 	jmp	0xe82	; 0xe82 <__vector_29>
      78:	0c 94 72 07 	jmp	0xee4	; 0xee4 <__vector_30>
      7c:	0c 94 2a 01 	jmp	0x254	; 0x254 <__bad_interrupt>
      80:	0c 94 2a 01 	jmp	0x254	; 0x254 <__bad_interrupt>
      84:	0c 94 2a 01 	jmp	0x254	; 0x254 <__bad_interrupt>
      88:	0c 94 2a 01 	jmp	0x254	; 0x254 <__bad_interrupt>
      8c:	0c 94 2a 01 	jmp	0x254	; 0x254 <__bad_interrupt>
      90:	0c 94 2a 01 	jmp	0x254	; 0x254 <__bad_interrupt>
      94:	0c 94 2a 01 	jmp	0x254	; 0x254 <__bad_interrupt>
      98:	0c 94 2a 01 	jmp	0x254	; 0x254 <__bad_interrupt>
      9c:	0c 94 2a 01 	jmp	0x254	; 0x254 <__bad_interrupt>
      a0:	0c 94 2a 01 	jmp	0x254	; 0x254 <__bad_interrupt>
      a4:	0c 94 2a 01 	jmp	0x254	; 0x254 <__bad_interrupt>
      a8:	0c 94 2a 01 	jmp	0x254	; 0x254 <__bad_interrupt>
      ac:	0c 94 2a 01 	jmp	0x254	; 0x254 <__bad_interrupt>
      b0:	0c 94 2a 01 	jmp	0x254	; 0x254 <__bad_interrupt>
      b4:	0c 94 2a 01 	jmp	0x254	; 0x254 <__bad_interrupt>
      b8:	0c 94 d3 06 	jmp	0xda6	; 0xda6 <__vector_46>
      bc:	0c 94 2a 01 	jmp	0x254	; 0x254 <__bad_interrupt>
      c0:	0c 94 2a 01 	jmp	0x254	; 0x254 <__bad_interrupt>
      c4:	0c 94 2a 01 	jmp	0x254	; 0x254 <__bad_interrupt>
      c8:	0c 94 2a 01 	jmp	0x254	; 0x254 <__bad_interrupt>
      cc:	46 20       	and	r4, r6
      ce:	4d 20       	and	r4, r13
      d0:	6c 20       	and	r6, r12
      d2:	60 20       	and	r6, r0
      d4:	69 20       	and	r6, r9
      d6:	66 20       	and	r6, r6
      d8:	31 20       	and	r3, r1
      da:	31 20       	and	r3, r1
      dc:	31 20       	and	r3, r1
      de:	31 20       	and	r3, r1
      e0:	31 20       	and	r3, r1
      e2:	31 20       	and	r3, r1
      e4:	31 20       	and	r3, r1
      e6:	31 20       	and	r3, r1
      e8:	63 20       	and	r6, r3
      ea:	31 20       	and	r3, r1
      ec:	31 20       	and	r3, r1
      ee:	31 20       	and	r3, r1
      f0:	5d 20       	and	r5, r13
      f2:	31 20       	and	r3, r1
      f4:	56 20       	and	r5, r6

000000f6 <__trampolines_end>:
      f6:	00 40       	sbci	r16, 0x00	; 0
      f8:	7a 10       	cpse	r7, r10
      fa:	f3 5a       	subi	r31, 0xA3	; 163
      fc:	00 a0       	ldd	r0, Z+32	; 0x20
      fe:	72 4e       	sbci	r23, 0xE2	; 226
     100:	18 09       	sbc	r17, r8
     102:	00 10       	cpse	r0, r0
     104:	a5 d4       	rcall	.+2378   	; 0xa50 <ds1302_comms+0x34>
     106:	e8 00       	.word	0x00e8	; ????
     108:	00 e8       	ldi	r16, 0x80	; 128
     10a:	76 48       	sbci	r23, 0x86	; 134
     10c:	17 00       	.word	0x0017	; ????
     10e:	00 e4       	ldi	r16, 0x40	; 64
     110:	0b 54       	subi	r16, 0x4B	; 75
     112:	02 00       	.word	0x0002	; ????
     114:	00 ca       	rjmp	.-3072   	; 0xfffff516 <__eeprom_end+0xff7ef4f9>
     116:	9a 3b       	cpi	r25, 0xBA	; 186
     118:	00 00       	nop
     11a:	00 e1       	ldi	r16, 0x10	; 16
     11c:	f5 05       	cpc	r31, r5
     11e:	00 00       	nop
     120:	80 96       	adiw	r24, 0x20	; 32
     122:	98 00       	.word	0x0098	; ????
     124:	00 00       	nop
     126:	40 42       	sbci	r20, 0x20	; 32
     128:	0f 00       	.word	0x000f	; ????
     12a:	00 00       	nop
     12c:	a0 86       	std	Z+8, r10	; 0x08
     12e:	01 00       	.word	0x0001	; ????
     130:	00 00       	nop
     132:	10 27       	eor	r17, r16
     134:	00 00       	nop
     136:	00 00       	nop
     138:	e8 03       	fmulsu	r22, r16
     13a:	00 00       	nop
     13c:	00 00       	nop
     13e:	64 00       	.word	0x0064	; ????
     140:	00 00       	nop
     142:	00 00       	nop
     144:	0a 00       	.word	0x000a	; ????
     146:	00 00       	nop
     148:	00 00       	nop
     14a:	01 00       	.word	0x0001	; ????
     14c:	00 00       	nop
     14e:	00 00       	nop
     150:	2c 76       	andi	r18, 0x6C	; 108
     152:	d8 88       	ldd	r13, Y+16	; 0x10
     154:	dc 67       	ori	r29, 0x7C	; 124
     156:	4f 08       	sbc	r4, r15
     158:	23 df       	rcall	.-442    	; 0xffffffa0 <__eeprom_end+0xff7eff83>
     15a:	c1 df       	rcall	.-126    	; 0xde <__SREG__+0x9f>
     15c:	ae 59       	subi	r26, 0x9E	; 158
     15e:	e1 b1       	in	r30, 0x01	; 1
     160:	b7 96       	adiw	r30, 0x27	; 39
     162:	e5 e3       	ldi	r30, 0x35	; 53
     164:	e4 53       	subi	r30, 0x34	; 52
     166:	c6 3a       	cpi	r28, 0xA6	; 166
     168:	e6 51       	subi	r30, 0x16	; 22
     16a:	99 76       	andi	r25, 0x69	; 105
     16c:	96 e8       	ldi	r25, 0x86	; 134
     16e:	e6 c2       	rjmp	.+1484   	; 0x73c <DS18x20_Init+0x5a>
     170:	84 26       	eor	r8, r20
     172:	eb 89       	ldd	r30, Y+19	; 0x13
     174:	8c 9b       	sbis	0x11, 4	; 17
     176:	62 ed       	ldi	r22, 0xD2	; 210
     178:	40 7c       	andi	r20, 0xC0	; 192
     17a:	6f fc       	.word	0xfc6f	; ????
     17c:	ef bc       	out	0x2f, r14	; 47
     17e:	9c 9f       	mul	r25, r28
     180:	40 f2       	brcs	.-112    	; 0x112 <__trampolines_end+0x1c>
     182:	ba a5       	ldd	r27, Y+42	; 0x2a
     184:	6f a5       	ldd	r22, Y+47	; 0x2f
     186:	f4 90       	lpm	r15, Z
     188:	05 5a       	subi	r16, 0xA5	; 165
     18a:	2a f7       	brpl	.-54     	; 0x156 <__trampolines_end+0x60>
     18c:	5c 93       	st	X, r21
     18e:	6b 6c       	ori	r22, 0xCB	; 203
     190:	f9 67       	ori	r31, 0x79	; 121
     192:	6d c1       	rjmp	.+730    	; 0x46e <Check_MDdata_Length+0x6>
     194:	1b fc       	.word	0xfc1b	; ????
     196:	e0 e4       	ldi	r30, 0x40	; 64
     198:	0d 47       	sbci	r16, 0x7D	; 125
     19a:	fe f5       	brtc	.+126    	; 0x21a <__ctors_end>
     19c:	20 e6       	ldi	r18, 0x60	; 96
     19e:	b5 00       	.word	0x00b5	; ????
     1a0:	d0 ed       	ldi	r29, 0xD0	; 208
     1a2:	90 2e       	mov	r9, r16
     1a4:	03 00       	.word	0x0003	; ????
     1a6:	94 35       	cpi	r25, 0x54	; 84
     1a8:	77 05       	cpc	r23, r7
     1aa:	00 80       	ld	r0, Z
     1ac:	84 1e       	adc	r8, r20
     1ae:	08 00       	.word	0x0008	; ????
     1b0:	00 20       	and	r0, r0
     1b2:	4e 0a       	sbc	r4, r30
     1b4:	00 00       	nop
     1b6:	00 c8       	rjmp	.-4096   	; 0xfffff1b8 <__eeprom_end+0xff7ef19b>
     1b8:	0c 33       	cpi	r16, 0x3C	; 60
     1ba:	33 33       	cpi	r19, 0x33	; 51
     1bc:	33 0f       	add	r19, r19
     1be:	98 6e       	ori	r25, 0xE8	; 232
     1c0:	12 83       	std	Z+2, r17	; 0x02
     1c2:	11 41       	sbci	r17, 0x11	; 17
     1c4:	ef 8d       	ldd	r30, Y+31	; 0x1f
     1c6:	21 14       	cp	r2, r1
     1c8:	89 3b       	cpi	r24, 0xB9	; 185
     1ca:	e6 55       	subi	r30, 0x56	; 86
     1cc:	16 cf       	rjmp	.-468    	; 0xfffffffa <__eeprom_end+0xff7effdd>
     1ce:	fe e6       	ldi	r31, 0x6E	; 110
     1d0:	db 18       	sub	r13, r11
     1d2:	d1 84       	ldd	r13, Z+9	; 0x09
     1d4:	4b 38       	cpi	r20, 0x8B	; 139
     1d6:	1b f7       	brvc	.-58     	; 0x19e <__trampolines_end+0xa8>
     1d8:	7c 1d       	adc	r23, r12
     1da:	90 1d       	adc	r25, r0
     1dc:	a4 bb       	out	0x14, r26	; 20
     1de:	e4 24       	eor	r14, r4
     1e0:	20 32       	cpi	r18, 0x20	; 32
     1e2:	84 72       	andi	r24, 0x24	; 36
     1e4:	5e 22       	and	r5, r30
     1e6:	81 00       	.word	0x0081	; ????
     1e8:	c9 f1       	breq	.+114    	; 0x25c <Buzzer.part.7+0x4>
     1ea:	24 ec       	ldi	r18, 0xC4	; 196
     1ec:	a1 e5       	ldi	r26, 0x51	; 81
     1ee:	3d 27       	eor	r19, r29

000001f0 <flash_Device_ID>:
     1f0:	53 43 4f 52 45 42 4f 41 52 44 5f 56 2e 31 2e 32     SCOREBOARD_V.1.2
	...

00000201 <flash_fonts>:
     201:	ee 06 7c 3e 96 ba fa 26 fe be e8 10 b4 00 f4 da     ..|>...&........
     211:	01 f0 5a 52 f6 d8 c8 f8 00                          ..ZR.....

0000021a <__ctors_end>:
     21a:	11 24       	eor	r1, r1
     21c:	1f be       	out	0x3f, r1	; 63
     21e:	cf ef       	ldi	r28, 0xFF	; 255
     220:	d8 e0       	ldi	r29, 0x08	; 8
     222:	de bf       	out	0x3e, r29	; 62
     224:	cd bf       	out	0x3d, r28	; 61

00000226 <__do_copy_data>:
     226:	11 e0       	ldi	r17, 0x01	; 1
     228:	a0 e0       	ldi	r26, 0x00	; 0
     22a:	b1 e0       	ldi	r27, 0x01	; 1
     22c:	e6 ee       	ldi	r30, 0xE6	; 230
     22e:	f8 e4       	ldi	r31, 0x48	; 72
     230:	02 c0       	rjmp	.+4      	; 0x236 <__do_copy_data+0x10>
     232:	05 90       	lpm	r0, Z+
     234:	0d 92       	st	X+, r0
     236:	ae 30       	cpi	r26, 0x0E	; 14
     238:	b1 07       	cpc	r27, r17
     23a:	d9 f7       	brne	.-10     	; 0x232 <__do_copy_data+0xc>

0000023c <__do_clear_bss>:
     23c:	25 e0       	ldi	r18, 0x05	; 5
     23e:	ae e0       	ldi	r26, 0x0E	; 14
     240:	b1 e0       	ldi	r27, 0x01	; 1
     242:	01 c0       	rjmp	.+2      	; 0x246 <.do_clear_bss_start>

00000244 <.do_clear_bss_loop>:
     244:	1d 92       	st	X+, r1

00000246 <.do_clear_bss_start>:
     246:	aa 31       	cpi	r26, 0x1A	; 26
     248:	b2 07       	cpc	r27, r18
     24a:	e1 f7       	brne	.-8      	; 0x244 <.do_clear_bss_loop>
     24c:	0e 94 be 1f 	call	0x3f7c	; 0x3f7c <main>
     250:	0c 94 71 24 	jmp	0x48e2	; 0x48e2 <_exit>

00000254 <__bad_interrupt>:
     254:	0c 94 00 00 	jmp	0	; 0x0 <__vectors>

00000258 <Buzzer.part.7>:
     258:	2b 9a       	sbi	0x05, 3	; 5
     25a:	90 93 99 00 	sts	0x0099, r25	; 0x800099 <__TEXT_REGION_LENGTH__+0x7f8099>
     25e:	80 93 98 00 	sts	0x0098, r24	; 0x800098 <__TEXT_REGION_LENGTH__+0x7f8098>
     262:	89 e0       	ldi	r24, 0x09	; 9
     264:	80 93 91 00 	sts	0x0091, r24	; 0x800091 <__TEXT_REGION_LENGTH__+0x7f8091>
     268:	08 95       	ret

0000026a <Init_MBI>:
     26a:	84 e0       	ldi	r24, 0x04	; 4
     26c:	82 b9       	out	0x02, r24	; 2
     26e:	8f e3       	ldi	r24, 0x3F	; 63
     270:	81 b9       	out	0x01, r24	; 1
     272:	08 95       	ret

00000274 <byte_out>:
     274:	98 e0       	ldi	r25, 0x08	; 8
     276:	80 ff       	sbrs	r24, 0
     278:	02 c0       	rjmp	.+4      	; 0x27e <byte_out+0xa>
     27a:	10 9a       	sbi	0x02, 0	; 2
     27c:	01 c0       	rjmp	.+2      	; 0x280 <byte_out+0xc>
     27e:	10 98       	cbi	0x02, 0	; 2
     280:	11 9a       	sbi	0x02, 1	; 2
     282:	11 98       	cbi	0x02, 1	; 2
     284:	85 95       	asr	r24
     286:	91 50       	subi	r25, 0x01	; 1
     288:	b1 f7       	brne	.-20     	; 0x276 <byte_out+0x2>
     28a:	08 95       	ret

0000028c <do_rclk>:
     28c:	13 9a       	sbi	0x02, 3	; 2
     28e:	13 98       	cbi	0x02, 3	; 2
     290:	08 95       	ret

00000292 <DoLEDtest>:
     292:	0f 93       	push	r16
     294:	1f 93       	push	r17
     296:	cf 93       	push	r28
     298:	df 93       	push	r29
     29a:	c0 e0       	ldi	r28, 0x00	; 0
     29c:	80 91 cf 04 	lds	r24, 0x04CF	; 0x8004cf <Digits_disp>
     2a0:	2c 2f       	mov	r18, r28
     2a2:	30 e0       	ldi	r19, 0x00	; 0
     2a4:	08 2e       	mov	r0, r24
     2a6:	00 0c       	add	r0, r0
     2a8:	99 0b       	sbc	r25, r25
     2aa:	28 17       	cp	r18, r24
     2ac:	39 07       	cpc	r19, r25
     2ae:	2c f4       	brge	.+10     	; 0x2ba <DoLEDtest+0x28>
     2b0:	8f ef       	ldi	r24, 0xFF	; 255
     2b2:	0e 94 3a 01 	call	0x274	; 0x274 <byte_out>
     2b6:	cf 5f       	subi	r28, 0xFF	; 255
     2b8:	f1 cf       	rjmp	.-30     	; 0x29c <DoLEDtest+0xa>
     2ba:	0e 94 46 01 	call	0x28c	; 0x28c <do_rclk>
     2be:	a8 95       	wdr
     2c0:	2f ef       	ldi	r18, 0xFF	; 255
     2c2:	83 ec       	ldi	r24, 0xC3	; 195
     2c4:	99 e0       	ldi	r25, 0x09	; 9
     2c6:	21 50       	subi	r18, 0x01	; 1
     2c8:	80 40       	sbci	r24, 0x00	; 0
     2ca:	90 40       	sbci	r25, 0x00	; 0
     2cc:	e1 f7       	brne	.-8      	; 0x2c6 <DoLEDtest+0x34>
     2ce:	00 c0       	rjmp	.+0      	; 0x2d0 <DoLEDtest+0x3e>
     2d0:	00 00       	nop
     2d2:	08 e0       	ldi	r16, 0x08	; 8
     2d4:	10 e0       	ldi	r17, 0x00	; 0
     2d6:	d0 e8       	ldi	r29, 0x80	; 128
     2d8:	c0 e0       	ldi	r28, 0x00	; 0
     2da:	80 91 cf 04 	lds	r24, 0x04CF	; 0x8004cf <Digits_disp>
     2de:	2c 2f       	mov	r18, r28
     2e0:	30 e0       	ldi	r19, 0x00	; 0
     2e2:	08 2e       	mov	r0, r24
     2e4:	00 0c       	add	r0, r0
     2e6:	99 0b       	sbc	r25, r25
     2e8:	28 17       	cp	r18, r24
     2ea:	39 07       	cpc	r19, r25
     2ec:	2c f4       	brge	.+10     	; 0x2f8 <DoLEDtest+0x66>
     2ee:	8d 2f       	mov	r24, r29
     2f0:	0e 94 3a 01 	call	0x274	; 0x274 <byte_out>
     2f4:	cf 5f       	subi	r28, 0xFF	; 255
     2f6:	f1 cf       	rjmp	.-30     	; 0x2da <DoLEDtest+0x48>
     2f8:	0e 94 46 01 	call	0x28c	; 0x28c <do_rclk>
     2fc:	a8 95       	wdr
     2fe:	2f ef       	ldi	r18, 0xFF	; 255
     300:	83 ec       	ldi	r24, 0xC3	; 195
     302:	99 e0       	ldi	r25, 0x09	; 9
     304:	21 50       	subi	r18, 0x01	; 1
     306:	80 40       	sbci	r24, 0x00	; 0
     308:	90 40       	sbci	r25, 0x00	; 0
     30a:	e1 f7       	brne	.-8      	; 0x304 <DoLEDtest+0x72>
     30c:	00 c0       	rjmp	.+0      	; 0x30e <DoLEDtest+0x7c>
     30e:	00 00       	nop
     310:	d6 95       	lsr	r29
     312:	01 50       	subi	r16, 0x01	; 1
     314:	11 09       	sbc	r17, r1
     316:	01 f7       	brne	.-64     	; 0x2d8 <DoLEDtest+0x46>
     318:	df 91       	pop	r29
     31a:	cf 91       	pop	r28
     31c:	1f 91       	pop	r17
     31e:	0f 91       	pop	r16
     320:	08 95       	ret

00000322 <TLC_special_mode>:
     322:	12 9a       	sbi	0x02, 2	; 2
     324:	13 98       	cbi	0x02, 3	; 2
     326:	11 9a       	sbi	0x02, 1	; 2
     328:	11 98       	cbi	0x02, 1	; 2
     32a:	12 98       	cbi	0x02, 2	; 2
     32c:	11 9a       	sbi	0x02, 1	; 2
     32e:	11 98       	cbi	0x02, 1	; 2
     330:	12 9a       	sbi	0x02, 2	; 2
     332:	11 9a       	sbi	0x02, 1	; 2
     334:	11 98       	cbi	0x02, 1	; 2
     336:	13 9a       	sbi	0x02, 3	; 2
     338:	11 9a       	sbi	0x02, 1	; 2
     33a:	11 98       	cbi	0x02, 1	; 2
     33c:	13 98       	cbi	0x02, 3	; 2
     33e:	11 9a       	sbi	0x02, 1	; 2
     340:	11 98       	cbi	0x02, 1	; 2
     342:	08 95       	ret

00000344 <TLC_normal_mode>:
     344:	12 9a       	sbi	0x02, 2	; 2
     346:	13 98       	cbi	0x02, 3	; 2
     348:	11 9a       	sbi	0x02, 1	; 2
     34a:	11 98       	cbi	0x02, 1	; 2
     34c:	12 98       	cbi	0x02, 2	; 2
     34e:	11 9a       	sbi	0x02, 1	; 2
     350:	11 98       	cbi	0x02, 1	; 2
     352:	12 9a       	sbi	0x02, 2	; 2
     354:	11 9a       	sbi	0x02, 1	; 2
     356:	11 98       	cbi	0x02, 1	; 2
     358:	11 9a       	sbi	0x02, 1	; 2
     35a:	11 98       	cbi	0x02, 1	; 2
     35c:	11 9a       	sbi	0x02, 1	; 2
     35e:	11 98       	cbi	0x02, 1	; 2
     360:	12 98       	cbi	0x02, 2	; 2
     362:	08 95       	ret

00000364 <TLC_config_byte>:
     364:	cf 93       	push	r28
     366:	df 93       	push	r29
     368:	c8 2f       	mov	r28, r24
     36a:	d6 2f       	mov	r29, r22
     36c:	0e 94 91 01 	call	0x322	; 0x322 <TLC_special_mode>
     370:	20 e1       	ldi	r18, 0x10	; 16
     372:	c2 9f       	mul	r28, r18
     374:	c0 01       	movw	r24, r0
     376:	11 24       	eor	r1, r1
     378:	8f 3f       	cpi	r24, 0xFF	; 255
     37a:	91 05       	cpc	r25, r1
     37c:	89 f0       	breq	.+34     	; 0x3a0 <TLC_config_byte+0x3c>
     37e:	84 f0       	brlt	.+32     	; 0x3a0 <TLC_config_byte+0x3c>
     380:	8f ef       	ldi	r24, 0xFF	; 255
     382:	0e c0       	rjmp	.+28     	; 0x3a0 <TLC_config_byte+0x3c>
     384:	97 30       	cpi	r25, 0x07	; 7
     386:	09 f4       	brne	.+2      	; 0x38a <TLC_config_byte+0x26>
     388:	13 9a       	sbi	0x02, 3	; 2
     38a:	20 ff       	sbrs	r18, 0
     38c:	0e c0       	rjmp	.+28     	; 0x3aa <TLC_config_byte+0x46>
     38e:	10 9a       	sbi	0x02, 0	; 2
     390:	11 9a       	sbi	0x02, 1	; 2
     392:	11 98       	cbi	0x02, 1	; 2
     394:	26 95       	lsr	r18
     396:	9f 5f       	subi	r25, 0xFF	; 255
     398:	98 30       	cpi	r25, 0x08	; 8
     39a:	a1 f7       	brne	.-24     	; 0x384 <TLC_config_byte+0x20>
     39c:	13 98       	cbi	0x02, 3	; 2
     39e:	d1 50       	subi	r29, 0x01	; 1
     3a0:	dd 23       	and	r29, r29
     3a2:	29 f0       	breq	.+10     	; 0x3ae <TLC_config_byte+0x4a>
     3a4:	28 2f       	mov	r18, r24
     3a6:	90 e0       	ldi	r25, 0x00	; 0
     3a8:	f0 cf       	rjmp	.-32     	; 0x38a <TLC_config_byte+0x26>
     3aa:	10 98       	cbi	0x02, 0	; 2
     3ac:	f1 cf       	rjmp	.-30     	; 0x390 <TLC_config_byte+0x2c>
     3ae:	df 91       	pop	r29
     3b0:	cf 91       	pop	r28
     3b2:	0c 94 a2 01 	jmp	0x344	; 0x344 <TLC_normal_mode>

000003b6 <RC5_Reset>:
     3b6:	a8 95       	wdr
     3b8:	10 92 d2 04 	sts	0x04D2, r1	; 0x8004d2 <has_new>
     3bc:	8e e0       	ldi	r24, 0x0E	; 14
     3be:	80 93 d3 04 	sts	0x04D3, r24	; 0x8004d3 <ccounter>
     3c2:	10 92 d1 04 	sts	0x04D1, r1	; 0x8004d1 <command+0x1>
     3c6:	10 92 d0 04 	sts	0x04D0, r1	; 0x8004d0 <command>
     3ca:	85 e0       	ldi	r24, 0x05	; 5
     3cc:	80 93 02 01 	sts	0x0102, r24	; 0x800102 <state>
     3d0:	ea 9a       	sbi	0x1d, 2	; 29
     3d2:	08 95       	ret

000003d4 <RC5_Init>:
     3d4:	e9 e6       	ldi	r30, 0x69	; 105
     3d6:	f0 e0       	ldi	r31, 0x00	; 0
     3d8:	80 81       	ld	r24, Z
     3da:	80 61       	ori	r24, 0x10	; 16
     3dc:	80 83       	st	Z, r24
     3de:	22 98       	cbi	0x04, 2	; 4
     3e0:	10 92 80 00 	sts	0x0080, r1	; 0x800080 <__TEXT_REGION_LENGTH__+0x7f8080>
     3e4:	82 e0       	ldi	r24, 0x02	; 2
     3e6:	80 93 81 00 	sts	0x0081, r24	; 0x800081 <__TEXT_REGION_LENGTH__+0x7f8081>
     3ea:	0c 94 db 01 	jmp	0x3b6	; 0x3b6 <RC5_Reset>

000003ee <RC5_NewCommandReceived>:
     3ee:	20 91 d2 04 	lds	r18, 0x04D2	; 0x8004d2 <has_new>
     3f2:	22 23       	and	r18, r18
     3f4:	39 f0       	breq	.+14     	; 0x404 <__EEPROM_REGION_LENGTH__+0x4>
     3f6:	20 91 d0 04 	lds	r18, 0x04D0	; 0x8004d0 <command>
     3fa:	30 91 d1 04 	lds	r19, 0x04D1	; 0x8004d1 <command+0x1>
     3fe:	fc 01       	movw	r30, r24
     400:	31 83       	std	Z+1, r19	; 0x01
     402:	20 83       	st	Z, r18
     404:	80 91 d2 04 	lds	r24, 0x04D2	; 0x8004d2 <has_new>
     408:	08 95       	ret

0000040a <Reset_Modbus_Timeout>:
     40a:	91 e0       	ldi	r25, 0x01	; 1
     40c:	99 bb       	out	0x19, r25	; 25
     40e:	2e b1       	in	r18, 0x0e	; 14
     410:	80 e4       	ldi	r24, 0x40	; 64
     412:	82 27       	eor	r24, r18
     414:	8e b9       	out	0x0e, r24	; 14
     416:	20 e0       	ldi	r18, 0x00	; 0
     418:	30 e8       	ldi	r19, 0x80	; 128
     41a:	30 93 a5 00 	sts	0x00A5, r19	; 0x8000a5 <__TEXT_REGION_LENGTH__+0x7f80a5>
     41e:	20 93 a4 00 	sts	0x00A4, r18	; 0x8000a4 <__TEXT_REGION_LENGTH__+0x7f80a4>
     422:	82 e0       	ldi	r24, 0x02	; 2
     424:	80 93 a1 00 	sts	0x00A1, r24	; 0x8000a1 <__TEXT_REGION_LENGTH__+0x7f80a1>
     428:	90 93 72 00 	sts	0x0072, r25	; 0x800072 <__TEXT_REGION_LENGTH__+0x7f8072>
     42c:	08 95       	ret

0000042e <Put_CRC>:
     42e:	20 91 00 01 	lds	r18, 0x0100	; 0x800100 <__data_start>
     432:	30 91 01 01 	lds	r19, 0x0101	; 0x800101 <__data_start+0x1>
     436:	a9 01       	movw	r20, r18
     438:	48 27       	eor	r20, r24
     43a:	ca 01       	movw	r24, r20
     43c:	28 e0       	ldi	r18, 0x08	; 8
     43e:	30 e0       	ldi	r19, 0x00	; 0
     440:	ac 01       	movw	r20, r24
     442:	56 95       	lsr	r21
     444:	47 95       	ror	r20
     446:	80 ff       	sbrs	r24, 0
     448:	06 c0       	rjmp	.+12     	; 0x456 <Put_CRC+0x28>
     44a:	ca 01       	movw	r24, r20
     44c:	61 e0       	ldi	r22, 0x01	; 1
     44e:	86 27       	eor	r24, r22
     450:	60 ea       	ldi	r22, 0xA0	; 160
     452:	96 27       	eor	r25, r22
     454:	01 c0       	rjmp	.+2      	; 0x458 <Put_CRC+0x2a>
     456:	ca 01       	movw	r24, r20
     458:	21 50       	subi	r18, 0x01	; 1
     45a:	31 09       	sbc	r19, r1
     45c:	89 f7       	brne	.-30     	; 0x440 <Put_CRC+0x12>
     45e:	90 93 01 01 	sts	0x0101, r25	; 0x800101 <__data_start+0x1>
     462:	80 93 00 01 	sts	0x0100, r24	; 0x800100 <__data_start>
     466:	08 95       	ret

00000468 <Check_MDdata_Length>:
     468:	87 31       	cpi	r24, 0x17	; 23
     46a:	09 f1       	breq	.+66     	; 0x4ae <Check_MDdata_Length+0x46>
     46c:	48 f4       	brcc	.+18     	; 0x480 <Check_MDdata_Length+0x18>
     46e:	83 31       	cpi	r24, 0x13	; 19
     470:	c1 f0       	breq	.+48     	; 0x4a2 <Check_MDdata_Length+0x3a>
     472:	18 f4       	brcc	.+6      	; 0x47a <Check_MDdata_Length+0x12>
     474:	81 31       	cpi	r24, 0x11	; 17
     476:	d8 f4       	brcc	.+54     	; 0x4ae <Check_MDdata_Length+0x46>
     478:	18 c0       	rjmp	.+48     	; 0x4aa <Check_MDdata_Length+0x42>
     47a:	84 31       	cpi	r24, 0x14	; 20
     47c:	91 f0       	breq	.+36     	; 0x4a2 <Check_MDdata_Length+0x3a>
     47e:	15 c0       	rjmp	.+42     	; 0x4aa <Check_MDdata_Length+0x42>
     480:	87 32       	cpi	r24, 0x27	; 39
     482:	89 f0       	breq	.+34     	; 0x4a6 <Check_MDdata_Length+0x3e>
     484:	28 f4       	brcc	.+10     	; 0x490 <Check_MDdata_Length+0x28>
     486:	81 32       	cpi	r24, 0x21	; 33
     488:	51 f0       	breq	.+20     	; 0x49e <Check_MDdata_Length+0x36>
     48a:	84 32       	cpi	r24, 0x24	; 36
     48c:	51 f0       	breq	.+20     	; 0x4a2 <Check_MDdata_Length+0x3a>
     48e:	0d c0       	rjmp	.+26     	; 0x4aa <Check_MDdata_Length+0x42>
     490:	81 34       	cpi	r24, 0x41	; 65
     492:	29 f0       	breq	.+10     	; 0x49e <Check_MDdata_Length+0x36>
     494:	80 35       	cpi	r24, 0x50	; 80
     496:	49 f4       	brne	.+18     	; 0x4aa <Check_MDdata_Length+0x42>
     498:	80 91 cf 04 	lds	r24, 0x04CF	; 0x8004cf <Digits_disp>
     49c:	08 95       	ret
     49e:	82 e0       	ldi	r24, 0x02	; 2
     4a0:	08 95       	ret
     4a2:	83 e0       	ldi	r24, 0x03	; 3
     4a4:	08 95       	ret
     4a6:	88 e0       	ldi	r24, 0x08	; 8
     4a8:	08 95       	ret
     4aa:	80 e0       	ldi	r24, 0x00	; 0
     4ac:	08 95       	ret
     4ae:	81 e0       	ldi	r24, 0x01	; 1
     4b0:	08 95       	ret

000004b2 <OWReset>:
     4b2:	fc 01       	movw	r30, r24
     4b4:	a0 81       	ld	r26, Z
     4b6:	b1 81       	ldd	r27, Z+1	; 0x01
     4b8:	4e 91       	ld	r20, -X
     4ba:	21 e0       	ldi	r18, 0x01	; 1
     4bc:	30 e0       	ldi	r19, 0x00	; 0
     4be:	c9 01       	movw	r24, r18
     4c0:	02 80       	ldd	r0, Z+2	; 0x02
     4c2:	02 c0       	rjmp	.+4      	; 0x4c8 <OWReset+0x16>
     4c4:	88 0f       	add	r24, r24
     4c6:	99 1f       	adc	r25, r25
     4c8:	0a 94       	dec	r0
     4ca:	e2 f7       	brpl	.-8      	; 0x4c4 <OWReset+0x12>
     4cc:	84 2b       	or	r24, r20
     4ce:	8c 93       	st	X, r24
     4d0:	8f eb       	ldi	r24, 0xBF	; 191
     4d2:	93 e0       	ldi	r25, 0x03	; 3
     4d4:	01 97       	sbiw	r24, 0x01	; 1
     4d6:	f1 f7       	brne	.-4      	; 0x4d4 <OWReset+0x22>
     4d8:	00 c0       	rjmp	.+0      	; 0x4da <OWReset+0x28>
     4da:	00 00       	nop
     4dc:	a0 81       	ld	r26, Z
     4de:	b1 81       	ldd	r27, Z+1	; 0x01
     4e0:	9e 91       	ld	r25, -X
     4e2:	a9 01       	movw	r20, r18
     4e4:	02 80       	ldd	r0, Z+2	; 0x02
     4e6:	02 c0       	rjmp	.+4      	; 0x4ec <OWReset+0x3a>
     4e8:	44 0f       	add	r20, r20
     4ea:	55 1f       	adc	r21, r21
     4ec:	0a 94       	dec	r0
     4ee:	e2 f7       	brpl	.-8      	; 0x4e8 <OWReset+0x36>
     4f0:	84 2f       	mov	r24, r20
     4f2:	80 95       	com	r24
     4f4:	89 23       	and	r24, r25
     4f6:	8c 93       	st	X, r24
     4f8:	95 ed       	ldi	r25, 0xD5	; 213
     4fa:	9a 95       	dec	r25
     4fc:	f1 f7       	brne	.-4      	; 0x4fa <OWReset+0x48>
     4fe:	00 00       	nop
     500:	a0 81       	ld	r26, Z
     502:	b1 81       	ldd	r27, Z+1	; 0x01
     504:	12 97       	sbiw	r26, 0x02	; 2
     506:	8c 91       	ld	r24, X
     508:	02 80       	ldd	r0, Z+2	; 0x02
     50a:	02 c0       	rjmp	.+4      	; 0x510 <OWReset+0x5e>
     50c:	22 0f       	add	r18, r18
     50e:	33 1f       	adc	r19, r19
     510:	0a 94       	dec	r0
     512:	e2 f7       	brpl	.-8      	; 0x50c <OWReset+0x5a>
     514:	82 23       	and	r24, r18
     516:	ef e1       	ldi	r30, 0x1F	; 31
     518:	f3 e0       	ldi	r31, 0x03	; 3
     51a:	31 97       	sbiw	r30, 0x01	; 1
     51c:	f1 f7       	brne	.-4      	; 0x51a <OWReset+0x68>
     51e:	00 c0       	rjmp	.+0      	; 0x520 <OWReset+0x6e>
     520:	00 00       	nop
     522:	08 95       	ret

00000524 <OWWriteBit>:
     524:	fc 01       	movw	r30, r24
     526:	a0 81       	ld	r26, Z
     528:	b1 81       	ldd	r27, Z+1	; 0x01
     52a:	4e 91       	ld	r20, -X
     52c:	21 e0       	ldi	r18, 0x01	; 1
     52e:	30 e0       	ldi	r19, 0x00	; 0
     530:	c9 01       	movw	r24, r18
     532:	02 80       	ldd	r0, Z+2	; 0x02
     534:	02 c0       	rjmp	.+4      	; 0x53a <OWWriteBit+0x16>
     536:	88 0f       	add	r24, r24
     538:	99 1f       	adc	r25, r25
     53a:	0a 94       	dec	r0
     53c:	e2 f7       	brpl	.-8      	; 0x536 <OWWriteBit+0x12>
     53e:	84 2b       	or	r24, r20
     540:	8c 93       	st	X, r24
     542:	66 23       	and	r22, r22
     544:	99 f0       	breq	.+38     	; 0x56c <OWWriteBit+0x48>
     546:	88 e2       	ldi	r24, 0x28	; 40
     548:	8a 95       	dec	r24
     54a:	f1 f7       	brne	.-4      	; 0x548 <OWWriteBit+0x24>
     54c:	a0 81       	ld	r26, Z
     54e:	b1 81       	ldd	r27, Z+1	; 0x01
     550:	8e 91       	ld	r24, -X
     552:	02 80       	ldd	r0, Z+2	; 0x02
     554:	02 c0       	rjmp	.+4      	; 0x55a <OWWriteBit+0x36>
     556:	22 0f       	add	r18, r18
     558:	33 1f       	adc	r19, r19
     55a:	0a 94       	dec	r0
     55c:	e2 f7       	brpl	.-8      	; 0x556 <OWWriteBit+0x32>
     55e:	20 95       	com	r18
     560:	28 23       	and	r18, r24
     562:	2c 93       	st	X, r18
     564:	88 e7       	ldi	r24, 0x78	; 120
     566:	8a 95       	dec	r24
     568:	f1 f7       	brne	.-4      	; 0x566 <OWWriteBit+0x42>
     56a:	08 95       	ret
     56c:	80 ea       	ldi	r24, 0xA0	; 160
     56e:	8a 95       	dec	r24
     570:	f1 f7       	brne	.-4      	; 0x56e <OWWriteBit+0x4a>
     572:	a0 81       	ld	r26, Z
     574:	b1 81       	ldd	r27, Z+1	; 0x01
     576:	8e 91       	ld	r24, -X
     578:	02 80       	ldd	r0, Z+2	; 0x02
     57a:	02 c0       	rjmp	.+4      	; 0x580 <OWWriteBit+0x5c>
     57c:	22 0f       	add	r18, r18
     57e:	33 1f       	adc	r19, r19
     580:	0a 94       	dec	r0
     582:	e2 f7       	brpl	.-8      	; 0x57c <OWWriteBit+0x58>
     584:	20 95       	com	r18
     586:	28 23       	and	r18, r24
     588:	2c 93       	st	X, r18
     58a:	08 95       	ret

0000058c <OWReadBit>:
     58c:	fc 01       	movw	r30, r24
     58e:	a0 81       	ld	r26, Z
     590:	b1 81       	ldd	r27, Z+1	; 0x01
     592:	4e 91       	ld	r20, -X
     594:	81 e0       	ldi	r24, 0x01	; 1
     596:	90 e0       	ldi	r25, 0x00	; 0
     598:	9c 01       	movw	r18, r24
     59a:	02 80       	ldd	r0, Z+2	; 0x02
     59c:	02 c0       	rjmp	.+4      	; 0x5a2 <OWReadBit+0x16>
     59e:	22 0f       	add	r18, r18
     5a0:	33 1f       	adc	r19, r19
     5a2:	0a 94       	dec	r0
     5a4:	e2 f7       	brpl	.-8      	; 0x59e <OWReadBit+0x12>
     5a6:	24 2b       	or	r18, r20
     5a8:	2c 93       	st	X, r18
     5aa:	2a e0       	ldi	r18, 0x0A	; 10
     5ac:	2a 95       	dec	r18
     5ae:	f1 f7       	brne	.-4      	; 0x5ac <OWReadBit+0x20>
     5b0:	00 c0       	rjmp	.+0      	; 0x5b2 <OWReadBit+0x26>
     5b2:	a0 81       	ld	r26, Z
     5b4:	b1 81       	ldd	r27, Z+1	; 0x01
     5b6:	2e 91       	ld	r18, -X
     5b8:	02 80       	ldd	r0, Z+2	; 0x02
     5ba:	02 c0       	rjmp	.+4      	; 0x5c0 <OWReadBit+0x34>
     5bc:	88 0f       	add	r24, r24
     5be:	99 1f       	adc	r25, r25
     5c0:	0a 94       	dec	r0
     5c2:	e2 f7       	brpl	.-8      	; 0x5bc <OWReadBit+0x30>
     5c4:	80 95       	com	r24
     5c6:	82 23       	and	r24, r18
     5c8:	8c 93       	st	X, r24
     5ca:	85 e1       	ldi	r24, 0x15	; 21
     5cc:	8a 95       	dec	r24
     5ce:	f1 f7       	brne	.-4      	; 0x5cc <OWReadBit+0x40>
     5d0:	00 00       	nop
     5d2:	a0 81       	ld	r26, Z
     5d4:	b1 81       	ldd	r27, Z+1	; 0x01
     5d6:	12 97       	sbiw	r26, 0x02	; 2
     5d8:	2c 91       	ld	r18, X
     5da:	30 e0       	ldi	r19, 0x00	; 0
     5dc:	c9 01       	movw	r24, r18
     5de:	02 80       	ldd	r0, Z+2	; 0x02
     5e0:	02 c0       	rjmp	.+4      	; 0x5e6 <OWReadBit+0x5a>
     5e2:	95 95       	asr	r25
     5e4:	87 95       	ror	r24
     5e6:	0a 94       	dec	r0
     5e8:	e2 f7       	brpl	.-8      	; 0x5e2 <OWReadBit+0x56>
     5ea:	81 70       	andi	r24, 0x01	; 1
     5ec:	90 e8       	ldi	r25, 0x80	; 128
     5ee:	9a 95       	dec	r25
     5f0:	f1 f7       	brne	.-4      	; 0x5ee <OWReadBit+0x62>
     5f2:	08 95       	ret

000005f4 <OWWriteByte>:
     5f4:	ef 92       	push	r14
     5f6:	ff 92       	push	r15
     5f8:	0f 93       	push	r16
     5fa:	1f 93       	push	r17
     5fc:	cf 93       	push	r28
     5fe:	df 93       	push	r29
     600:	7c 01       	movw	r14, r24
     602:	06 2f       	mov	r16, r22
     604:	c8 e0       	ldi	r28, 0x08	; 8
     606:	d0 e0       	ldi	r29, 0x00	; 0
     608:	11 e0       	ldi	r17, 0x01	; 1
     60a:	60 2f       	mov	r22, r16
     60c:	61 23       	and	r22, r17
     60e:	c7 01       	movw	r24, r14
     610:	0e 94 92 02 	call	0x524	; 0x524 <OWWriteBit>
     614:	11 0f       	add	r17, r17
     616:	21 97       	sbiw	r28, 0x01	; 1
     618:	c1 f7       	brne	.-16     	; 0x60a <OWWriteByte+0x16>
     61a:	df 91       	pop	r29
     61c:	cf 91       	pop	r28
     61e:	1f 91       	pop	r17
     620:	0f 91       	pop	r16
     622:	ff 90       	pop	r15
     624:	ef 90       	pop	r14
     626:	08 95       	ret

00000628 <OWReadByte>:
     628:	ef 92       	push	r14
     62a:	ff 92       	push	r15
     62c:	0f 93       	push	r16
     62e:	1f 93       	push	r17
     630:	cf 93       	push	r28
     632:	df 93       	push	r29
     634:	7c 01       	movw	r14, r24
     636:	08 e0       	ldi	r16, 0x08	; 8
     638:	10 e0       	ldi	r17, 0x00	; 0
     63a:	d1 e0       	ldi	r29, 0x01	; 1
     63c:	c0 e0       	ldi	r28, 0x00	; 0
     63e:	c7 01       	movw	r24, r14
     640:	0e 94 c6 02 	call	0x58c	; 0x58c <OWReadBit>
     644:	81 11       	cpse	r24, r1
     646:	cd 2b       	or	r28, r29
     648:	dd 0f       	add	r29, r29
     64a:	01 50       	subi	r16, 0x01	; 1
     64c:	11 09       	sbc	r17, r1
     64e:	b9 f7       	brne	.-18     	; 0x63e <OWReadByte+0x16>
     650:	8c 2f       	mov	r24, r28
     652:	df 91       	pop	r29
     654:	cf 91       	pop	r28
     656:	1f 91       	pop	r17
     658:	0f 91       	pop	r16
     65a:	ff 90       	pop	r15
     65c:	ef 90       	pop	r14
     65e:	08 95       	ret

00000660 <OWCheckCRC>:
     660:	28 2f       	mov	r18, r24
     662:	fc 01       	movw	r30, r24
     664:	80 e0       	ldi	r24, 0x00	; 0
     666:	9e 2f       	mov	r25, r30
     668:	92 1b       	sub	r25, r18
     66a:	96 17       	cp	r25, r22
     66c:	50 f4       	brcc	.+20     	; 0x682 <OWCheckCRC+0x22>
     66e:	91 91       	ld	r25, Z+
     670:	89 27       	eor	r24, r25
     672:	98 e0       	ldi	r25, 0x08	; 8
     674:	3c e8       	ldi	r19, 0x8C	; 140
     676:	86 95       	lsr	r24
     678:	08 f4       	brcc	.+2      	; 0x67c <OWCheckCRC+0x1c>
     67a:	83 27       	eor	r24, r19
     67c:	9a 95       	dec	r25
     67e:	d9 f7       	brne	.-10     	; 0x676 <OWCheckCRC+0x16>
     680:	f2 cf       	rjmp	.-28     	; 0x666 <OWCheckCRC+0x6>
     682:	08 95       	ret

00000684 <DS18x20_ReadROM>:
     684:	cf 92       	push	r12
     686:	df 92       	push	r13
     688:	ef 92       	push	r14
     68a:	ff 92       	push	r15
     68c:	0f 93       	push	r16
     68e:	1f 93       	push	r17
     690:	cf 93       	push	r28
     692:	df 93       	push	r29
     694:	ec 01       	movw	r28, r24
     696:	63 e3       	ldi	r22, 0x33	; 51
     698:	0e 94 fa 02 	call	0x5f4	; 0x5f4 <OWWriteByte>
     69c:	8e 01       	movw	r16, r28
     69e:	0d 5f       	subi	r16, 0xFD	; 253
     6a0:	1f 4f       	sbci	r17, 0xFF	; 255
     6a2:	6e 01       	movw	r12, r28
     6a4:	8b e0       	ldi	r24, 0x0B	; 11
     6a6:	c8 0e       	add	r12, r24
     6a8:	d1 1c       	adc	r13, r1
     6aa:	78 01       	movw	r14, r16
     6ac:	ce 01       	movw	r24, r28
     6ae:	0e 94 14 03 	call	0x628	; 0x628 <OWReadByte>
     6b2:	f8 01       	movw	r30, r16
     6b4:	81 93       	st	Z+, r24
     6b6:	8f 01       	movw	r16, r30
     6b8:	ec 15       	cp	r30, r12
     6ba:	fd 05       	cpc	r31, r13
     6bc:	b9 f7       	brne	.-18     	; 0x6ac <DS18x20_ReadROM+0x28>
     6be:	67 e0       	ldi	r22, 0x07	; 7
     6c0:	c7 01       	movw	r24, r14
     6c2:	0e 94 30 03 	call	0x660	; 0x660 <OWCheckCRC>
     6c6:	91 e0       	ldi	r25, 0x01	; 1
     6c8:	2a 85       	ldd	r18, Y+10	; 0x0a
     6ca:	28 13       	cpse	r18, r24
     6cc:	90 e0       	ldi	r25, 0x00	; 0
     6ce:	89 2f       	mov	r24, r25
     6d0:	df 91       	pop	r29
     6d2:	cf 91       	pop	r28
     6d4:	1f 91       	pop	r17
     6d6:	0f 91       	pop	r16
     6d8:	ff 90       	pop	r15
     6da:	ef 90       	pop	r14
     6dc:	df 90       	pop	r13
     6de:	cf 90       	pop	r12
     6e0:	08 95       	ret

000006e2 <DS18x20_Init>:
     6e2:	1f 93       	push	r17
     6e4:	cf 93       	push	r28
     6e6:	df 93       	push	r29
     6e8:	ec 01       	movw	r28, r24
     6ea:	79 83       	std	Y+1, r23	; 0x01
     6ec:	68 83       	st	Y, r22
     6ee:	4a 83       	std	Y+2, r20	; 0x02
     6f0:	fb 01       	movw	r30, r22
     6f2:	30 81       	ld	r19, Z
     6f4:	81 e0       	ldi	r24, 0x01	; 1
     6f6:	90 e0       	ldi	r25, 0x00	; 0
     6f8:	fc 01       	movw	r30, r24
     6fa:	02 c0       	rjmp	.+4      	; 0x700 <DS18x20_Init+0x1e>
     6fc:	ee 0f       	add	r30, r30
     6fe:	ff 1f       	adc	r31, r31
     700:	4a 95       	dec	r20
     702:	e2 f7       	brpl	.-8      	; 0x6fc <DS18x20_Init+0x1a>
     704:	2e 2f       	mov	r18, r30
     706:	20 95       	com	r18
     708:	23 23       	and	r18, r19
     70a:	fb 01       	movw	r30, r22
     70c:	20 83       	st	Z, r18
     70e:	e8 81       	ld	r30, Y
     710:	f9 81       	ldd	r31, Y+1	; 0x01
     712:	22 91       	ld	r18, -Z
     714:	0a 80       	ldd	r0, Y+2	; 0x02
     716:	02 c0       	rjmp	.+4      	; 0x71c <DS18x20_Init+0x3a>
     718:	88 0f       	add	r24, r24
     71a:	99 1f       	adc	r25, r25
     71c:	0a 94       	dec	r0
     71e:	e2 f7       	brpl	.-8      	; 0x718 <DS18x20_Init+0x36>
     720:	80 95       	com	r24
     722:	82 23       	and	r24, r18
     724:	80 83       	st	Z, r24
     726:	ce 01       	movw	r24, r28
     728:	0e 94 59 02 	call	0x4b2	; 0x4b2 <OWReset>
     72c:	18 2f       	mov	r17, r24
     72e:	81 11       	cpse	r24, r1
     730:	11 c0       	rjmp	.+34     	; 0x754 <DS18x20_Init+0x72>
     732:	ce 01       	movw	r24, r28
     734:	0e 94 42 03 	call	0x684	; 0x684 <DS18x20_ReadROM>
     738:	88 23       	and	r24, r24
     73a:	61 f0       	breq	.+24     	; 0x754 <DS18x20_Init+0x72>
     73c:	8b 81       	ldd	r24, Y+3	; 0x03
     73e:	80 31       	cpi	r24, 0x10	; 16
     740:	39 f0       	breq	.+14     	; 0x750 <DS18x20_Init+0x6e>
     742:	88 32       	cpi	r24, 0x28	; 40
     744:	39 f4       	brne	.+14     	; 0x754 <DS18x20_Init+0x72>
     746:	81 e0       	ldi	r24, 0x01	; 1
     748:	8c 8b       	std	Y+20, r24	; 0x14
     74a:	8f e7       	ldi	r24, 0x7F	; 127
     74c:	8f 87       	std	Y+15, r24	; 0x0f
     74e:	03 c0       	rjmp	.+6      	; 0x756 <DS18x20_Init+0x74>
     750:	1c 8a       	std	Y+20, r1	; 0x14
     752:	01 c0       	rjmp	.+2      	; 0x756 <DS18x20_Init+0x74>
     754:	11 e0       	ldi	r17, 0x01	; 1
     756:	81 2f       	mov	r24, r17
     758:	df 91       	pop	r29
     75a:	cf 91       	pop	r28
     75c:	1f 91       	pop	r17
     75e:	08 95       	ret

00000760 <DS18x20_ReadScratchPad>:
     760:	cf 92       	push	r12
     762:	df 92       	push	r13
     764:	ef 92       	push	r14
     766:	ff 92       	push	r15
     768:	0f 93       	push	r16
     76a:	1f 93       	push	r17
     76c:	cf 93       	push	r28
     76e:	df 93       	push	r29
     770:	ec 01       	movw	r28, r24
     772:	0e 94 59 02 	call	0x4b2	; 0x4b2 <OWReset>
     776:	6c ec       	ldi	r22, 0xCC	; 204
     778:	ce 01       	movw	r24, r28
     77a:	0e 94 fa 02 	call	0x5f4	; 0x5f4 <OWWriteByte>
     77e:	6e eb       	ldi	r22, 0xBE	; 190
     780:	ce 01       	movw	r24, r28
     782:	0e 94 fa 02 	call	0x5f4	; 0x5f4 <OWWriteByte>
     786:	8e 01       	movw	r16, r28
     788:	05 5f       	subi	r16, 0xF5	; 245
     78a:	1f 4f       	sbci	r17, 0xFF	; 255
     78c:	6e 01       	movw	r12, r28
     78e:	84 e1       	ldi	r24, 0x14	; 20
     790:	c8 0e       	add	r12, r24
     792:	d1 1c       	adc	r13, r1
     794:	78 01       	movw	r14, r16
     796:	ce 01       	movw	r24, r28
     798:	0e 94 14 03 	call	0x628	; 0x628 <OWReadByte>
     79c:	f8 01       	movw	r30, r16
     79e:	81 93       	st	Z+, r24
     7a0:	8f 01       	movw	r16, r30
     7a2:	ec 15       	cp	r30, r12
     7a4:	fd 05       	cpc	r31, r13
     7a6:	b9 f7       	brne	.-18     	; 0x796 <DS18x20_ReadScratchPad+0x36>
     7a8:	68 e0       	ldi	r22, 0x08	; 8
     7aa:	c7 01       	movw	r24, r14
     7ac:	0e 94 30 03 	call	0x660	; 0x660 <OWCheckCRC>
     7b0:	91 e0       	ldi	r25, 0x01	; 1
     7b2:	2b 89       	ldd	r18, Y+19	; 0x13
     7b4:	28 13       	cpse	r18, r24
     7b6:	90 e0       	ldi	r25, 0x00	; 0
     7b8:	89 2f       	mov	r24, r25
     7ba:	df 91       	pop	r29
     7bc:	cf 91       	pop	r28
     7be:	1f 91       	pop	r17
     7c0:	0f 91       	pop	r16
     7c2:	ff 90       	pop	r15
     7c4:	ef 90       	pop	r14
     7c6:	df 90       	pop	r13
     7c8:	cf 90       	pop	r12
     7ca:	08 95       	ret

000007cc <DS18x20_MeasureTemperature>:
     7cc:	cf 93       	push	r28
     7ce:	df 93       	push	r29
     7d0:	ec 01       	movw	r28, r24
     7d2:	0e 94 59 02 	call	0x4b2	; 0x4b2 <OWReset>
     7d6:	6c ec       	ldi	r22, 0xCC	; 204
     7d8:	ce 01       	movw	r24, r28
     7da:	0e 94 fa 02 	call	0x5f4	; 0x5f4 <OWWriteByte>
     7de:	64 e4       	ldi	r22, 0x44	; 68
     7e0:	ce 01       	movw	r24, r28
     7e2:	0e 94 fa 02 	call	0x5f4	; 0x5f4 <OWWriteByte>
     7e6:	8f 85       	ldd	r24, Y+15	; 0x0f
     7e8:	8f 33       	cpi	r24, 0x3F	; 63
     7ea:	61 f0       	breq	.+24     	; 0x804 <__DATA_REGION_LENGTH__+0x4>
     7ec:	8f 35       	cpi	r24, 0x5F	; 95
     7ee:	91 f0       	breq	.+36     	; 0x814 <__DATA_REGION_LENGTH__+0x14>
     7f0:	8f 31       	cpi	r24, 0x1F	; 31
     7f2:	c1 f4       	brne	.+48     	; 0x824 <__DATA_REGION_LENGTH__+0x24>
     7f4:	2f e7       	ldi	r18, 0x7F	; 127
     7f6:	8b e4       	ldi	r24, 0x4B	; 75
     7f8:	92 e0       	ldi	r25, 0x02	; 2
     7fa:	21 50       	subi	r18, 0x01	; 1
     7fc:	80 40       	sbci	r24, 0x00	; 0
     7fe:	90 40       	sbci	r25, 0x00	; 0
     800:	e1 f7       	brne	.-8      	; 0x7fa <DS18x20_MeasureTemperature+0x2e>
     802:	17 c0       	rjmp	.+46     	; 0x832 <__DATA_REGION_LENGTH__+0x32>
     804:	2f ef       	ldi	r18, 0xFF	; 255
     806:	86 e9       	ldi	r24, 0x96	; 150
     808:	94 e0       	ldi	r25, 0x04	; 4
     80a:	21 50       	subi	r18, 0x01	; 1
     80c:	80 40       	sbci	r24, 0x00	; 0
     80e:	90 40       	sbci	r25, 0x00	; 0
     810:	e1 f7       	brne	.-8      	; 0x80a <__DATA_REGION_LENGTH__+0xa>
     812:	0f c0       	rjmp	.+30     	; 0x832 <__DATA_REGION_LENGTH__+0x32>
     814:	2f eb       	ldi	r18, 0xBF	; 191
     816:	87 e2       	ldi	r24, 0x27	; 39
     818:	99 e0       	ldi	r25, 0x09	; 9
     81a:	21 50       	subi	r18, 0x01	; 1
     81c:	80 40       	sbci	r24, 0x00	; 0
     81e:	90 40       	sbci	r25, 0x00	; 0
     820:	e1 f7       	brne	.-8      	; 0x81a <__DATA_REGION_LENGTH__+0x1a>
     822:	07 c0       	rjmp	.+14     	; 0x832 <__DATA_REGION_LENGTH__+0x32>
     824:	2f e7       	ldi	r18, 0x7F	; 127
     826:	8f e4       	ldi	r24, 0x4F	; 79
     828:	92 e1       	ldi	r25, 0x12	; 18
     82a:	21 50       	subi	r18, 0x01	; 1
     82c:	80 40       	sbci	r24, 0x00	; 0
     82e:	90 40       	sbci	r25, 0x00	; 0
     830:	e1 f7       	brne	.-8      	; 0x82a <__DATA_REGION_LENGTH__+0x2a>
     832:	00 c0       	rjmp	.+0      	; 0x834 <__DATA_REGION_LENGTH__+0x34>
     834:	00 00       	nop
     836:	ce 01       	movw	r24, r28
     838:	df 91       	pop	r29
     83a:	cf 91       	pop	r28
     83c:	0c 94 b0 03 	jmp	0x760	; 0x760 <DS18x20_ReadScratchPad>

00000840 <DS18x20_WriteScratchpad>:
     840:	cf 93       	push	r28
     842:	df 93       	push	r29
     844:	ec 01       	movw	r28, r24
     846:	0e 94 59 02 	call	0x4b2	; 0x4b2 <OWReset>
     84a:	6c ec       	ldi	r22, 0xCC	; 204
     84c:	ce 01       	movw	r24, r28
     84e:	0e 94 fa 02 	call	0x5f4	; 0x5f4 <OWWriteByte>
     852:	6e e4       	ldi	r22, 0x4E	; 78
     854:	ce 01       	movw	r24, r28
     856:	0e 94 fa 02 	call	0x5f4	; 0x5f4 <OWWriteByte>
     85a:	6d 85       	ldd	r22, Y+13	; 0x0d
     85c:	ce 01       	movw	r24, r28
     85e:	0e 94 fa 02 	call	0x5f4	; 0x5f4 <OWWriteByte>
     862:	6e 85       	ldd	r22, Y+14	; 0x0e
     864:	ce 01       	movw	r24, r28
     866:	0e 94 fa 02 	call	0x5f4	; 0x5f4 <OWWriteByte>
     86a:	8c 89       	ldd	r24, Y+20	; 0x14
     86c:	81 30       	cpi	r24, 0x01	; 1
     86e:	31 f4       	brne	.+12     	; 0x87c <DS18x20_WriteScratchpad+0x3c>
     870:	6f 85       	ldd	r22, Y+15	; 0x0f
     872:	ce 01       	movw	r24, r28
     874:	df 91       	pop	r29
     876:	cf 91       	pop	r28
     878:	0c 94 fa 02 	jmp	0x5f4	; 0x5f4 <OWWriteByte>
     87c:	df 91       	pop	r29
     87e:	cf 91       	pop	r28
     880:	08 95       	ret

00000882 <DS18x20_TemperatureValue>:
     882:	fc 01       	movw	r30, r24
     884:	63 85       	ldd	r22, Z+11	; 0x0b
     886:	74 85       	ldd	r23, Z+12	; 0x0c
     888:	77 ff       	sbrs	r23, 7
     88a:	02 c0       	rjmp	.+4      	; 0x890 <DS18x20_TemperatureValue+0xe>
     88c:	4f ef       	ldi	r20, 0xFF	; 255
     88e:	01 c0       	rjmp	.+2      	; 0x892 <DS18x20_TemperatureValue+0x10>
     890:	41 e0       	ldi	r20, 0x01	; 1
     892:	84 89       	ldd	r24, Z+20	; 0x14
     894:	88 23       	and	r24, r24
     896:	09 f4       	brne	.+2      	; 0x89a <DS18x20_TemperatureValue+0x18>
     898:	5a c0       	rjmp	.+180    	; 0x94e <__stack+0x4f>
     89a:	87 85       	ldd	r24, Z+15	; 0x0f
     89c:	8f 33       	cpi	r24, 0x3F	; 63
     89e:	a9 f0       	breq	.+42     	; 0x8ca <DS18x20_TemperatureValue+0x48>
     8a0:	20 f4       	brcc	.+8      	; 0x8aa <DS18x20_TemperatureValue+0x28>
     8a2:	8f 31       	cpi	r24, 0x1F	; 31
     8a4:	09 f4       	brne	.+2      	; 0x8a8 <DS18x20_TemperatureValue+0x26>
     8a6:	43 c0       	rjmp	.+134    	; 0x92e <__stack+0x2f>
     8a8:	5f c0       	rjmp	.+190    	; 0x968 <__stack+0x69>
     8aa:	8f 35       	cpi	r24, 0x5F	; 95
     8ac:	41 f1       	breq	.+80     	; 0x8fe <DS18x20_TemperatureValue+0x7c>
     8ae:	8f 37       	cpi	r24, 0x7F	; 127
     8b0:	09 f0       	breq	.+2      	; 0x8b4 <DS18x20_TemperatureValue+0x32>
     8b2:	5a c0       	rjmp	.+180    	; 0x968 <__stack+0x69>
     8b4:	07 2e       	mov	r0, r23
     8b6:	00 0c       	add	r0, r0
     8b8:	88 0b       	sbc	r24, r24
     8ba:	99 0b       	sbc	r25, r25
     8bc:	0e 94 7e 20 	call	0x40fc	; 0x40fc <__floatsisf>
     8c0:	20 e0       	ldi	r18, 0x00	; 0
     8c2:	30 e0       	ldi	r19, 0x00	; 0
     8c4:	40 e8       	ldi	r20, 0x80	; 128
     8c6:	5d e3       	ldi	r21, 0x3D	; 61
     8c8:	4c c0       	rjmp	.+152    	; 0x962 <__stack+0x63>
     8ca:	77 ff       	sbrs	r23, 7
     8cc:	03 c0       	rjmp	.+6      	; 0x8d4 <DS18x20_TemperatureValue+0x52>
     8ce:	71 95       	neg	r23
     8d0:	61 95       	neg	r22
     8d2:	71 09       	sbc	r23, r1
     8d4:	9b 01       	movw	r18, r22
     8d6:	35 95       	asr	r19
     8d8:	27 95       	ror	r18
     8da:	35 95       	asr	r19
     8dc:	27 95       	ror	r18
     8de:	42 03       	mulsu	r20, r18
     8e0:	b0 01       	movw	r22, r0
     8e2:	43 9f       	mul	r20, r19
     8e4:	70 0d       	add	r23, r0
     8e6:	11 24       	eor	r1, r1
     8e8:	07 2e       	mov	r0, r23
     8ea:	00 0c       	add	r0, r0
     8ec:	88 0b       	sbc	r24, r24
     8ee:	99 0b       	sbc	r25, r25
     8f0:	0e 94 7e 20 	call	0x40fc	; 0x40fc <__floatsisf>
     8f4:	20 e0       	ldi	r18, 0x00	; 0
     8f6:	30 e0       	ldi	r19, 0x00	; 0
     8f8:	40 e8       	ldi	r20, 0x80	; 128
     8fa:	5e e3       	ldi	r21, 0x3E	; 62
     8fc:	32 c0       	rjmp	.+100    	; 0x962 <__stack+0x63>
     8fe:	77 ff       	sbrs	r23, 7
     900:	03 c0       	rjmp	.+6      	; 0x908 <__stack+0x9>
     902:	71 95       	neg	r23
     904:	61 95       	neg	r22
     906:	71 09       	sbc	r23, r1
     908:	9b 01       	movw	r18, r22
     90a:	35 95       	asr	r19
     90c:	27 95       	ror	r18
     90e:	42 03       	mulsu	r20, r18
     910:	b0 01       	movw	r22, r0
     912:	43 9f       	mul	r20, r19
     914:	70 0d       	add	r23, r0
     916:	11 24       	eor	r1, r1
     918:	07 2e       	mov	r0, r23
     91a:	00 0c       	add	r0, r0
     91c:	88 0b       	sbc	r24, r24
     91e:	99 0b       	sbc	r25, r25
     920:	0e 94 7e 20 	call	0x40fc	; 0x40fc <__floatsisf>
     924:	20 e0       	ldi	r18, 0x00	; 0
     926:	30 e0       	ldi	r19, 0x00	; 0
     928:	40 e0       	ldi	r20, 0x00	; 0
     92a:	5e e3       	ldi	r21, 0x3E	; 62
     92c:	1a c0       	rjmp	.+52     	; 0x962 <__stack+0x63>
     92e:	77 ff       	sbrs	r23, 7
     930:	03 c0       	rjmp	.+6      	; 0x938 <__stack+0x39>
     932:	71 95       	neg	r23
     934:	61 95       	neg	r22
     936:	71 09       	sbc	r23, r1
     938:	9b 01       	movw	r18, r22
     93a:	83 e0       	ldi	r24, 0x03	; 3
     93c:	35 95       	asr	r19
     93e:	27 95       	ror	r18
     940:	8a 95       	dec	r24
     942:	e1 f7       	brne	.-8      	; 0x93c <__stack+0x3d>
     944:	42 03       	mulsu	r20, r18
     946:	b0 01       	movw	r22, r0
     948:	43 9f       	mul	r20, r19
     94a:	70 0d       	add	r23, r0
     94c:	11 24       	eor	r1, r1
     94e:	07 2e       	mov	r0, r23
     950:	00 0c       	add	r0, r0
     952:	88 0b       	sbc	r24, r24
     954:	99 0b       	sbc	r25, r25
     956:	0e 94 7e 20 	call	0x40fc	; 0x40fc <__floatsisf>
     95a:	20 e0       	ldi	r18, 0x00	; 0
     95c:	30 e0       	ldi	r19, 0x00	; 0
     95e:	40 e0       	ldi	r20, 0x00	; 0
     960:	5f e3       	ldi	r21, 0x3F	; 63
     962:	0e 94 b9 20 	call	0x4172	; 0x4172 <__mulsf3>
     966:	08 95       	ret
     968:	60 e0       	ldi	r22, 0x00	; 0
     96a:	70 e0       	ldi	r23, 0x00	; 0
     96c:	cb 01       	movw	r24, r22
     96e:	08 95       	ret

00000970 <ds1302_init>:
     970:	87 b1       	in	r24, 0x07	; 7
     972:	83 60       	ori	r24, 0x03	; 3
     974:	87 b9       	out	0x07, r24	; 7
     976:	0f 9a       	sbi	0x01, 7	; 1
     978:	08 95       	ret

0000097a <ds1302_reset>:
     97a:	40 98       	cbi	0x08, 0	; 8
     97c:	17 98       	cbi	0x02, 7	; 2
     97e:	17 9a       	sbi	0x02, 7	; 2
     980:	8a e0       	ldi	r24, 0x0A	; 10
     982:	8a 95       	dec	r24
     984:	f1 f7       	brne	.-4      	; 0x982 <ds1302_reset+0x8>
     986:	00 c0       	rjmp	.+0      	; 0x988 <ds1302_reset+0xe>
     988:	08 95       	ret

0000098a <write>:
     98a:	39 9a       	sbi	0x07, 1	; 7
     98c:	98 e0       	ldi	r25, 0x08	; 8
     98e:	41 98       	cbi	0x08, 1	; 8
     990:	80 fd       	sbrc	r24, 0
     992:	41 9a       	sbi	0x08, 1	; 8
     994:	40 98       	cbi	0x08, 0	; 8
     996:	25 e0       	ldi	r18, 0x05	; 5
     998:	2a 95       	dec	r18
     99a:	f1 f7       	brne	.-4      	; 0x998 <write+0xe>
     99c:	00 00       	nop
     99e:	40 9a       	sbi	0x08, 0	; 8
     9a0:	25 e0       	ldi	r18, 0x05	; 5
     9a2:	2a 95       	dec	r18
     9a4:	f1 f7       	brne	.-4      	; 0x9a2 <write+0x18>
     9a6:	00 00       	nop
     9a8:	86 95       	lsr	r24
     9aa:	91 50       	subi	r25, 0x01	; 1
     9ac:	81 f7       	brne	.-32     	; 0x98e <write+0x4>
     9ae:	08 95       	ret

000009b0 <ds1302_write_byte>:
     9b0:	cf 93       	push	r28
     9b2:	df 93       	push	r29
     9b4:	d8 2f       	mov	r29, r24
     9b6:	c6 2f       	mov	r28, r22
     9b8:	0e 94 bd 04 	call	0x97a	; 0x97a <ds1302_reset>
     9bc:	8d 2f       	mov	r24, r29
     9be:	0e 94 c5 04 	call	0x98a	; 0x98a <write>
     9c2:	8c 2f       	mov	r24, r28
     9c4:	0e 94 c5 04 	call	0x98a	; 0x98a <write>
     9c8:	17 98       	cbi	0x02, 7	; 2
     9ca:	40 98       	cbi	0x08, 0	; 8
     9cc:	df 91       	pop	r29
     9ce:	cf 91       	pop	r28
     9d0:	08 95       	ret

000009d2 <read>:
     9d2:	39 98       	cbi	0x07, 1	; 7
     9d4:	28 e0       	ldi	r18, 0x08	; 8
     9d6:	80 e0       	ldi	r24, 0x00	; 0
     9d8:	40 9a       	sbi	0x08, 0	; 8
     9da:	95 e0       	ldi	r25, 0x05	; 5
     9dc:	9a 95       	dec	r25
     9de:	f1 f7       	brne	.-4      	; 0x9dc <read+0xa>
     9e0:	00 00       	nop
     9e2:	40 98       	cbi	0x08, 0	; 8
     9e4:	95 e0       	ldi	r25, 0x05	; 5
     9e6:	9a 95       	dec	r25
     9e8:	f1 f7       	brne	.-4      	; 0x9e6 <read+0x14>
     9ea:	00 00       	nop
     9ec:	96 b1       	in	r25, 0x06	; 6
     9ee:	86 95       	lsr	r24
     9f0:	96 95       	lsr	r25
     9f2:	91 70       	andi	r25, 0x01	; 1
     9f4:	97 95       	ror	r25
     9f6:	99 27       	eor	r25, r25
     9f8:	97 95       	ror	r25
     9fa:	89 2b       	or	r24, r25
     9fc:	21 50       	subi	r18, 0x01	; 1
     9fe:	61 f7       	brne	.-40     	; 0x9d8 <read+0x6>
     a00:	08 95       	ret

00000a02 <ds1302_read_byte>:
     a02:	cf 93       	push	r28
     a04:	c8 2f       	mov	r28, r24
     a06:	0e 94 bd 04 	call	0x97a	; 0x97a <ds1302_reset>
     a0a:	8c 2f       	mov	r24, r28
     a0c:	0e 94 c5 04 	call	0x98a	; 0x98a <write>
     a10:	0e 94 e9 04 	call	0x9d2	; 0x9d2 <read>
     a14:	17 98       	cbi	0x02, 7	; 2
     a16:	40 98       	cbi	0x08, 0	; 8
     a18:	cf 91       	pop	r28
     a1a:	08 95       	ret

00000a1c <ds1302_comms>:
     a1c:	cf 93       	push	r28
     a1e:	df 93       	push	r29
     a20:	ec 01       	movw	r28, r24
     a22:	96 2f       	mov	r25, r22
     a24:	64 2f       	mov	r22, r20
     a26:	2f 30       	cpi	r18, 0x0F	; 15
     a28:	a1 f5       	brne	.+104    	; 0xa92 <ds1302_comms+0x76>
     a2a:	94 31       	cpi	r25, 0x14	; 20
     a2c:	29 f4       	brne	.+10     	; 0xa38 <ds1302_comms+0x1c>
     a2e:	81 e8       	ldi	r24, 0x81	; 129
     a30:	0e 94 01 05 	call	0xa02	; 0xa02 <ds1302_read_byte>
     a34:	88 83       	st	Y, r24
     a36:	71 c0       	rjmp	.+226    	; 0xb1a <ds1302_comms+0xfe>
     a38:	95 31       	cpi	r25, 0x15	; 21
     a3a:	29 f4       	brne	.+10     	; 0xa46 <ds1302_comms+0x2a>
     a3c:	83 e8       	ldi	r24, 0x83	; 131
     a3e:	0e 94 01 05 	call	0xa02	; 0xa02 <ds1302_read_byte>
     a42:	89 83       	std	Y+1, r24	; 0x01
     a44:	6a c0       	rjmp	.+212    	; 0xb1a <ds1302_comms+0xfe>
     a46:	96 31       	cpi	r25, 0x16	; 22
     a48:	39 f4       	brne	.+14     	; 0xa58 <ds1302_comms+0x3c>
     a4a:	85 e8       	ldi	r24, 0x85	; 133
     a4c:	0e 94 01 05 	call	0xa02	; 0xa02 <ds1302_read_byte>
     a50:	9c e0       	ldi	r25, 0x0C	; 12
     a52:	9f 83       	std	Y+7, r25	; 0x07
     a54:	8a 83       	std	Y+2, r24	; 0x02
     a56:	61 c0       	rjmp	.+194    	; 0xb1a <ds1302_comms+0xfe>
     a58:	9b 31       	cpi	r25, 0x1B	; 27
     a5a:	29 f4       	brne	.+10     	; 0xa66 <ds1302_comms+0x4a>
     a5c:	8b e8       	ldi	r24, 0x8B	; 139
     a5e:	0e 94 01 05 	call	0xa02	; 0xa02 <ds1302_read_byte>
     a62:	8b 83       	std	Y+3, r24	; 0x03
     a64:	5a c0       	rjmp	.+180    	; 0xb1a <ds1302_comms+0xfe>
     a66:	97 31       	cpi	r25, 0x17	; 23
     a68:	29 f4       	brne	.+10     	; 0xa74 <ds1302_comms+0x58>
     a6a:	87 e8       	ldi	r24, 0x87	; 135
     a6c:	0e 94 01 05 	call	0xa02	; 0xa02 <ds1302_read_byte>
     a70:	8c 83       	std	Y+4, r24	; 0x04
     a72:	53 c0       	rjmp	.+166    	; 0xb1a <ds1302_comms+0xfe>
     a74:	98 31       	cpi	r25, 0x18	; 24
     a76:	29 f4       	brne	.+10     	; 0xa82 <ds1302_comms+0x66>
     a78:	89 e8       	ldi	r24, 0x89	; 137
     a7a:	0e 94 01 05 	call	0xa02	; 0xa02 <ds1302_read_byte>
     a7e:	8d 83       	std	Y+5, r24	; 0x05
     a80:	4c c0       	rjmp	.+152    	; 0xb1a <ds1302_comms+0xfe>
     a82:	99 31       	cpi	r25, 0x19	; 25
     a84:	09 f0       	breq	.+2      	; 0xa88 <ds1302_comms+0x6c>
     a86:	49 c0       	rjmp	.+146    	; 0xb1a <ds1302_comms+0xfe>
     a88:	8d e8       	ldi	r24, 0x8D	; 141
     a8a:	0e 94 01 05 	call	0xa02	; 0xa02 <ds1302_read_byte>
     a8e:	8e 83       	std	Y+6, r24	; 0x06
     a90:	44 c0       	rjmp	.+136    	; 0xb1a <ds1302_comms+0xfe>
     a92:	20 31       	cpi	r18, 0x10	; 16
     a94:	09 f0       	breq	.+2      	; 0xa98 <ds1302_comms+0x7c>
     a96:	41 c0       	rjmp	.+130    	; 0xb1a <ds1302_comms+0xfe>
     a98:	94 31       	cpi	r25, 0x14	; 20
     a9a:	11 f4       	brne	.+4      	; 0xaa0 <ds1302_comms+0x84>
     a9c:	80 e8       	ldi	r24, 0x80	; 128
     a9e:	39 c0       	rjmp	.+114    	; 0xb12 <ds1302_comms+0xf6>
     aa0:	95 31       	cpi	r25, 0x15	; 21
     aa2:	11 f4       	brne	.+4      	; 0xaa8 <ds1302_comms+0x8c>
     aa4:	82 e8       	ldi	r24, 0x82	; 130
     aa6:	35 c0       	rjmp	.+106    	; 0xb12 <ds1302_comms+0xf6>
     aa8:	96 31       	cpi	r25, 0x16	; 22
     aaa:	01 f5       	brne	.+64     	; 0xaec <ds1302_comms+0xd0>
     aac:	9f 81       	ldd	r25, Y+7	; 0x07
     aae:	9a 30       	cpi	r25, 0x0A	; 10
     ab0:	59 f4       	brne	.+22     	; 0xac8 <ds1302_comms+0xac>
     ab2:	84 2f       	mov	r24, r20
     ab4:	69 2f       	mov	r22, r25
     ab6:	0e 94 77 21 	call	0x42ee	; 0x42ee <__udivmodqi4>
     aba:	20 e1       	ldi	r18, 0x10	; 16
     abc:	82 9f       	mul	r24, r18
     abe:	b0 01       	movw	r22, r0
     ac0:	11 24       	eor	r1, r1
     ac2:	60 71       	andi	r22, 0x10	; 16
     ac4:	90 68       	ori	r25, 0x80	; 128
     ac6:	0c c0       	rjmp	.+24     	; 0xae0 <ds1302_comms+0xc4>
     ac8:	9b 30       	cpi	r25, 0x0B	; 11
     aca:	61 f4       	brne	.+24     	; 0xae4 <ds1302_comms+0xc8>
     acc:	84 2f       	mov	r24, r20
     ace:	6a e0       	ldi	r22, 0x0A	; 10
     ad0:	0e 94 77 21 	call	0x42ee	; 0x42ee <__udivmodqi4>
     ad4:	20 e1       	ldi	r18, 0x10	; 16
     ad6:	82 9f       	mul	r24, r18
     ad8:	b0 01       	movw	r22, r0
     ada:	11 24       	eor	r1, r1
     adc:	60 71       	andi	r22, 0x10	; 16
     ade:	90 6a       	ori	r25, 0xA0	; 160
     ae0:	69 2b       	or	r22, r25
     ae2:	02 c0       	rjmp	.+4      	; 0xae8 <ds1302_comms+0xcc>
     ae4:	9c 30       	cpi	r25, 0x0C	; 12
     ae6:	c9 f4       	brne	.+50     	; 0xb1a <ds1302_comms+0xfe>
     ae8:	84 e8       	ldi	r24, 0x84	; 132
     aea:	13 c0       	rjmp	.+38     	; 0xb12 <ds1302_comms+0xf6>
     aec:	9b 31       	cpi	r25, 0x1B	; 27
     aee:	11 f4       	brne	.+4      	; 0xaf4 <ds1302_comms+0xd8>
     af0:	8a e8       	ldi	r24, 0x8A	; 138
     af2:	0f c0       	rjmp	.+30     	; 0xb12 <ds1302_comms+0xf6>
     af4:	97 31       	cpi	r25, 0x17	; 23
     af6:	11 f4       	brne	.+4      	; 0xafc <ds1302_comms+0xe0>
     af8:	86 e8       	ldi	r24, 0x86	; 134
     afa:	0b c0       	rjmp	.+22     	; 0xb12 <ds1302_comms+0xf6>
     afc:	98 31       	cpi	r25, 0x18	; 24
     afe:	11 f4       	brne	.+4      	; 0xb04 <ds1302_comms+0xe8>
     b00:	88 e8       	ldi	r24, 0x88	; 136
     b02:	07 c0       	rjmp	.+14     	; 0xb12 <ds1302_comms+0xf6>
     b04:	99 31       	cpi	r25, 0x19	; 25
     b06:	11 f4       	brne	.+4      	; 0xb0c <ds1302_comms+0xf0>
     b08:	8c e8       	ldi	r24, 0x8C	; 140
     b0a:	03 c0       	rjmp	.+6      	; 0xb12 <ds1302_comms+0xf6>
     b0c:	9a 31       	cpi	r25, 0x1A	; 26
     b0e:	29 f4       	brne	.+10     	; 0xb1a <ds1302_comms+0xfe>
     b10:	8e e8       	ldi	r24, 0x8E	; 142
     b12:	df 91       	pop	r29
     b14:	cf 91       	pop	r28
     b16:	0c 94 d8 04 	jmp	0x9b0	; 0x9b0 <ds1302_write_byte>
     b1a:	df 91       	pop	r29
     b1c:	cf 91       	pop	r28
     b1e:	08 95       	ret

00000b20 <ds1302_update_time>:
     b20:	2f e0       	ldi	r18, 0x0F	; 15
     b22:	40 e0       	ldi	r20, 0x00	; 0
     b24:	0c 94 0e 05 	jmp	0xa1c	; 0xa1c <ds1302_comms>

00000b28 <ds1302_update>:
     b28:	cf 93       	push	r28
     b2a:	df 93       	push	r29
     b2c:	ec 01       	movw	r28, r24
     b2e:	64 e1       	ldi	r22, 0x14	; 20
     b30:	0e 94 90 05 	call	0xb20	; 0xb20 <ds1302_update_time>
     b34:	65 e1       	ldi	r22, 0x15	; 21
     b36:	ce 01       	movw	r24, r28
     b38:	0e 94 90 05 	call	0xb20	; 0xb20 <ds1302_update_time>
     b3c:	66 e1       	ldi	r22, 0x16	; 22
     b3e:	ce 01       	movw	r24, r28
     b40:	0e 94 90 05 	call	0xb20	; 0xb20 <ds1302_update_time>
     b44:	6b e1       	ldi	r22, 0x1B	; 27
     b46:	ce 01       	movw	r24, r28
     b48:	0e 94 90 05 	call	0xb20	; 0xb20 <ds1302_update_time>
     b4c:	67 e1       	ldi	r22, 0x17	; 23
     b4e:	ce 01       	movw	r24, r28
     b50:	0e 94 90 05 	call	0xb20	; 0xb20 <ds1302_update_time>
     b54:	68 e1       	ldi	r22, 0x18	; 24
     b56:	ce 01       	movw	r24, r28
     b58:	0e 94 90 05 	call	0xb20	; 0xb20 <ds1302_update_time>
     b5c:	69 e1       	ldi	r22, 0x19	; 25
     b5e:	ce 01       	movw	r24, r28
     b60:	df 91       	pop	r29
     b62:	cf 91       	pop	r28
     b64:	0c 94 90 05 	jmp	0xb20	; 0xb20 <ds1302_update_time>

00000b68 <ds1302_set_time>:
     b68:	20 e1       	ldi	r18, 0x10	; 16
     b6a:	0c 94 0e 05 	jmp	0xa1c	; 0xa1c <ds1302_comms>

00000b6e <ds1302_write_time>:
     b6e:	cf 93       	push	r28
     b70:	df 93       	push	r29
     b72:	ec 01       	movw	r28, r24
     b74:	40 e0       	ldi	r20, 0x00	; 0
     b76:	6a e1       	ldi	r22, 0x1A	; 26
     b78:	0e 94 b4 05 	call	0xb68	; 0xb68 <ds1302_set_time>
     b7c:	4a 81       	ldd	r20, Y+2	; 0x02
     b7e:	66 e1       	ldi	r22, 0x16	; 22
     b80:	ce 01       	movw	r24, r28
     b82:	0e 94 b4 05 	call	0xb68	; 0xb68 <ds1302_set_time>
     b86:	49 81       	ldd	r20, Y+1	; 0x01
     b88:	65 e1       	ldi	r22, 0x15	; 21
     b8a:	ce 01       	movw	r24, r28
     b8c:	0e 94 b4 05 	call	0xb68	; 0xb68 <ds1302_set_time>
     b90:	48 81       	ld	r20, Y
     b92:	64 e1       	ldi	r22, 0x14	; 20
     b94:	ce 01       	movw	r24, r28
     b96:	0e 94 b4 05 	call	0xb68	; 0xb68 <ds1302_set_time>
     b9a:	41 e0       	ldi	r20, 0x01	; 1
     b9c:	6a e1       	ldi	r22, 0x1A	; 26
     b9e:	ce 01       	movw	r24, r28
     ba0:	df 91       	pop	r29
     ba2:	cf 91       	pop	r28
     ba4:	0c 94 b4 05 	jmp	0xb68	; 0xb68 <ds1302_set_time>

00000ba8 <ds1302_write_date>:
     ba8:	cf 93       	push	r28
     baa:	df 93       	push	r29
     bac:	ec 01       	movw	r28, r24
     bae:	40 e0       	ldi	r20, 0x00	; 0
     bb0:	6a e1       	ldi	r22, 0x1A	; 26
     bb2:	0e 94 b4 05 	call	0xb68	; 0xb68 <ds1302_set_time>
     bb6:	4e 81       	ldd	r20, Y+6	; 0x06
     bb8:	69 e1       	ldi	r22, 0x19	; 25
     bba:	ce 01       	movw	r24, r28
     bbc:	0e 94 b4 05 	call	0xb68	; 0xb68 <ds1302_set_time>
     bc0:	4d 81       	ldd	r20, Y+5	; 0x05
     bc2:	68 e1       	ldi	r22, 0x18	; 24
     bc4:	ce 01       	movw	r24, r28
     bc6:	0e 94 b4 05 	call	0xb68	; 0xb68 <ds1302_set_time>
     bca:	4c 81       	ldd	r20, Y+4	; 0x04
     bcc:	67 e1       	ldi	r22, 0x17	; 23
     bce:	ce 01       	movw	r24, r28
     bd0:	0e 94 b4 05 	call	0xb68	; 0xb68 <ds1302_set_time>
     bd4:	41 e0       	ldi	r20, 0x01	; 1
     bd6:	6a e1       	ldi	r22, 0x1A	; 26
     bd8:	ce 01       	movw	r24, r28
     bda:	df 91       	pop	r29
     bdc:	cf 91       	pop	r28
     bde:	0c 94 b4 05 	jmp	0xb68	; 0xb68 <ds1302_set_time>

00000be2 <__vector_21>:
     be2:	1f 92       	push	r1
     be4:	0f 92       	push	r0
     be6:	0f b6       	in	r0, 0x3f	; 63
     be8:	0f 92       	push	r0
     bea:	11 24       	eor	r1, r1
     bec:	8f 93       	push	r24
     bee:	9f 93       	push	r25
     bf0:	ef 93       	push	r30
     bf2:	ff 93       	push	r31
     bf4:	90 91 97 02 	lds	r25, 0x0297	; 0x800297 <UART_TxHead>
     bf8:	80 91 96 02 	lds	r24, 0x0296	; 0x800296 <UART_TxTail>
     bfc:	98 17       	cp	r25, r24
     bfe:	79 f0       	breq	.+30     	; 0xc1e <__vector_21+0x3c>
     c00:	80 91 96 02 	lds	r24, 0x0296	; 0x800296 <UART_TxTail>
     c04:	90 e0       	ldi	r25, 0x00	; 0
     c06:	01 96       	adiw	r24, 0x01	; 1
     c08:	fc 01       	movw	r30, r24
     c0a:	ff 27       	eor	r31, r31
     c0c:	80 93 96 02 	sts	0x0296, r24	; 0x800296 <UART_TxTail>
     c10:	14 9a       	sbi	0x02, 4	; 2
     c12:	e8 5e       	subi	r30, 0xE8	; 232
     c14:	fc 4f       	sbci	r31, 0xFC	; 252
     c16:	80 81       	ld	r24, Z
     c18:	80 93 c6 00 	sts	0x00C6, r24	; 0x8000c6 <__TEXT_REGION_LENGTH__+0x7f80c6>
     c1c:	0a c0       	rjmp	.+20     	; 0xc32 <__vector_21+0x50>
     c1e:	80 91 c1 00 	lds	r24, 0x00C1	; 0x8000c1 <__TEXT_REGION_LENGTH__+0x7f80c1>
     c22:	8f 7d       	andi	r24, 0xDF	; 223
     c24:	80 93 c1 00 	sts	0x00C1, r24	; 0x8000c1 <__TEXT_REGION_LENGTH__+0x7f80c1>
     c28:	80 91 c1 00 	lds	r24, 0x00C1	; 0x8000c1 <__TEXT_REGION_LENGTH__+0x7f80c1>
     c2c:	80 64       	ori	r24, 0x40	; 64
     c2e:	80 93 c1 00 	sts	0x00C1, r24	; 0x8000c1 <__TEXT_REGION_LENGTH__+0x7f80c1>
     c32:	ff 91       	pop	r31
     c34:	ef 91       	pop	r30
     c36:	9f 91       	pop	r25
     c38:	8f 91       	pop	r24
     c3a:	0f 90       	pop	r0
     c3c:	0f be       	out	0x3f, r0	; 63
     c3e:	0f 90       	pop	r0
     c40:	1f 90       	pop	r1
     c42:	18 95       	reti

00000c44 <__vector_22>:
     c44:	1f 92       	push	r1
     c46:	0f 92       	push	r0
     c48:	0f b6       	in	r0, 0x3f	; 63
     c4a:	0f 92       	push	r0
     c4c:	11 24       	eor	r1, r1
     c4e:	14 98       	cbi	0x02, 4	; 2
     c50:	0f 90       	pop	r0
     c52:	0f be       	out	0x3f, r0	; 63
     c54:	0f 90       	pop	r0
     c56:	1f 90       	pop	r1
     c58:	18 95       	reti

00000c5a <uart0_init>:
     c5a:	f8 94       	cli
     c5c:	10 92 97 02 	sts	0x0297, r1	; 0x800297 <UART_TxHead>
     c60:	10 92 96 02 	sts	0x0296, r1	; 0x800296 <UART_TxTail>
     c64:	10 92 95 02 	sts	0x0295, r1	; 0x800295 <UART_RxHead>
     c68:	10 92 94 02 	sts	0x0294, r1	; 0x800294 <UART_RxTail>
     c6c:	78 94       	sei
     c6e:	97 ff       	sbrs	r25, 7
     c70:	04 c0       	rjmp	.+8      	; 0xc7a <uart0_init+0x20>
     c72:	22 e0       	ldi	r18, 0x02	; 2
     c74:	20 93 c0 00 	sts	0x00C0, r18	; 0x8000c0 <__TEXT_REGION_LENGTH__+0x7f80c0>
     c78:	9f 77       	andi	r25, 0x7F	; 127
     c7a:	90 93 c5 00 	sts	0x00C5, r25	; 0x8000c5 <__TEXT_REGION_LENGTH__+0x7f80c5>
     c7e:	80 93 c4 00 	sts	0x00C4, r24	; 0x8000c4 <__TEXT_REGION_LENGTH__+0x7f80c4>
     c82:	88 e9       	ldi	r24, 0x98	; 152
     c84:	80 93 c1 00 	sts	0x00C1, r24	; 0x8000c1 <__TEXT_REGION_LENGTH__+0x7f80c1>
     c88:	86 e0       	ldi	r24, 0x06	; 6
     c8a:	80 93 c2 00 	sts	0x00C2, r24	; 0x8000c2 <__TEXT_REGION_LENGTH__+0x7f80c2>
     c8e:	08 95       	ret

00000c90 <uart0_getc>:
     c90:	f8 94       	cli
     c92:	90 91 95 02 	lds	r25, 0x0295	; 0x800295 <UART_RxHead>
     c96:	80 91 94 02 	lds	r24, 0x0294	; 0x800294 <UART_RxTail>
     c9a:	98 13       	cpse	r25, r24
     c9c:	04 c0       	rjmp	.+8      	; 0xca6 <uart0_getc+0x16>
     c9e:	78 94       	sei
     ca0:	80 e0       	ldi	r24, 0x00	; 0
     ca2:	91 e0       	ldi	r25, 0x01	; 1
     ca4:	08 95       	ret
     ca6:	78 94       	sei
     ca8:	80 91 94 02 	lds	r24, 0x0294	; 0x800294 <UART_RxTail>
     cac:	90 e0       	ldi	r25, 0x00	; 0
     cae:	01 96       	adiw	r24, 0x01	; 1
     cb0:	8f 77       	andi	r24, 0x7F	; 127
     cb2:	99 27       	eor	r25, r25
     cb4:	80 93 94 02 	sts	0x0294, r24	; 0x800294 <UART_RxTail>
     cb8:	fc 01       	movw	r30, r24
     cba:	e8 56       	subi	r30, 0x68	; 104
     cbc:	fd 4f       	sbci	r31, 0xFD	; 253
     cbe:	20 81       	ld	r18, Z
     cc0:	80 91 93 02 	lds	r24, 0x0293	; 0x800293 <UART_LastRxError>
     cc4:	90 e0       	ldi	r25, 0x00	; 0
     cc6:	98 2f       	mov	r25, r24
     cc8:	88 27       	eor	r24, r24
     cca:	82 0f       	add	r24, r18
     ccc:	91 1d       	adc	r25, r1
     cce:	08 95       	ret

00000cd0 <uart0_putc>:
     cd0:	20 91 97 02 	lds	r18, 0x0297	; 0x800297 <UART_TxHead>
     cd4:	30 e0       	ldi	r19, 0x00	; 0
     cd6:	2f 5f       	subi	r18, 0xFF	; 255
     cd8:	3f 4f       	sbci	r19, 0xFF	; 255
     cda:	a9 01       	movw	r20, r18
     cdc:	55 27       	eor	r21, r21
     cde:	60 91 96 02 	lds	r22, 0x0296	; 0x800296 <UART_TxTail>
     ce2:	70 e0       	ldi	r23, 0x00	; 0
     ce4:	46 17       	cp	r20, r22
     ce6:	57 07       	cpc	r21, r23
     ce8:	d1 f3       	breq	.-12     	; 0xcde <uart0_putc+0xe>
     cea:	fa 01       	movw	r30, r20
     cec:	e8 5e       	subi	r30, 0xE8	; 232
     cee:	fc 4f       	sbci	r31, 0xFC	; 252
     cf0:	80 83       	st	Z, r24
     cf2:	20 93 97 02 	sts	0x0297, r18	; 0x800297 <UART_TxHead>
     cf6:	80 91 c1 00 	lds	r24, 0x00C1	; 0x8000c1 <__TEXT_REGION_LENGTH__+0x7f80c1>
     cfa:	80 62       	ori	r24, 0x20	; 32
     cfc:	80 93 c1 00 	sts	0x00C1, r24	; 0x8000c1 <__TEXT_REGION_LENGTH__+0x7f80c1>
     d00:	08 95       	ret

00000d02 <Reply_modbus>:
     d02:	ff 92       	push	r15
     d04:	0f 93       	push	r16
     d06:	1f 93       	push	r17
     d08:	cf 93       	push	r28
     d0a:	df 93       	push	r29
     d0c:	cd b7       	in	r28, 0x3d	; 61
     d0e:	de b7       	in	r29, 0x3e	; 62
     d10:	09 85       	ldd	r16, Y+9	; 0x09
     d12:	1a 85       	ldd	r17, Y+10	; 0x0a
     d14:	8f ef       	ldi	r24, 0xFF	; 255
     d16:	9f ef       	ldi	r25, 0xFF	; 255
     d18:	90 93 01 01 	sts	0x0101, r25	; 0x800101 <__data_start+0x1>
     d1c:	80 93 00 01 	sts	0x0100, r24	; 0x800100 <__data_start>
     d20:	f8 94       	cli
     d22:	8c e1       	ldi	r24, 0x1C	; 28
     d24:	90 e0       	ldi	r25, 0x00	; 0
     d26:	0e 94 24 24 	call	0x4848	; 0x4848 <eeprom_read_byte>
     d2a:	f8 2e       	mov	r15, r24
     d2c:	78 94       	sei
     d2e:	0e 94 17 02 	call	0x42e	; 0x42e <Put_CRC>
     d32:	80 2f       	mov	r24, r16
     d34:	0e 94 17 02 	call	0x42e	; 0x42e <Put_CRC>
     d38:	8f 2d       	mov	r24, r15
     d3a:	0e 94 68 06 	call	0xcd0	; 0xcd0 <uart0_putc>
     d3e:	80 2f       	mov	r24, r16
     d40:	0e 94 68 06 	call	0xcd0	; 0xcd0 <uart0_putc>
     d44:	11 11       	cpse	r17, r1
     d46:	0e c0       	rjmp	.+28     	; 0xd64 <Reply_modbus+0x62>
     d48:	10 91 01 01 	lds	r17, 0x0101	; 0x800101 <__data_start+0x1>
     d4c:	80 91 00 01 	lds	r24, 0x0100	; 0x800100 <__data_start>
     d50:	0e 94 68 06 	call	0xcd0	; 0xcd0 <uart0_putc>
     d54:	81 2f       	mov	r24, r17
     d56:	df 91       	pop	r29
     d58:	cf 91       	pop	r28
     d5a:	1f 91       	pop	r17
     d5c:	0f 91       	pop	r16
     d5e:	ff 90       	pop	r15
     d60:	0c 94 68 06 	jmp	0xcd0	; 0xcd0 <uart0_putc>
     d64:	81 2f       	mov	r24, r17
     d66:	0e 94 17 02 	call	0x42e	; 0x42e <Put_CRC>
     d6a:	81 2f       	mov	r24, r17
     d6c:	0e 94 68 06 	call	0xcd0	; 0xcd0 <uart0_putc>
     d70:	00 e0       	ldi	r16, 0x00	; 0
     d72:	eb e0       	ldi	r30, 0x0B	; 11
     d74:	f0 e0       	ldi	r31, 0x00	; 0
     d76:	ec 0f       	add	r30, r28
     d78:	fd 1f       	adc	r31, r29
     d7a:	e0 0f       	add	r30, r16
     d7c:	f1 1d       	adc	r31, r1
     d7e:	07 fd       	sbrc	r16, 7
     d80:	fa 95       	dec	r31
     d82:	f0 80       	ld	r15, Z
     d84:	8f 2d       	mov	r24, r15
     d86:	0e 94 68 06 	call	0xcd0	; 0xcd0 <uart0_putc>
     d8a:	0f 5f       	subi	r16, 0xFF	; 255
     d8c:	8f 2d       	mov	r24, r15
     d8e:	0e 94 17 02 	call	0x42e	; 0x42e <Put_CRC>
     d92:	01 13       	cpse	r16, r17
     d94:	ee cf       	rjmp	.-36     	; 0xd72 <Reply_modbus+0x70>
     d96:	d8 cf       	rjmp	.-80     	; 0xd48 <Reply_modbus+0x46>

00000d98 <uart0_flush>:
     d98:	f8 94       	cli
     d9a:	80 91 94 02 	lds	r24, 0x0294	; 0x800294 <UART_RxTail>
     d9e:	80 93 95 02 	sts	0x0295, r24	; 0x800295 <UART_RxHead>
     da2:	78 94       	sei
     da4:	08 95       	ret

00000da6 <__vector_46>:
     da6:	1f 92       	push	r1
     da8:	0f 92       	push	r0
     daa:	0f b6       	in	r0, 0x3f	; 63
     dac:	0f 92       	push	r0
     dae:	11 24       	eor	r1, r1
     db0:	2f 93       	push	r18
     db2:	3f 93       	push	r19
     db4:	4f 93       	push	r20
     db6:	5f 93       	push	r21
     db8:	6f 93       	push	r22
     dba:	7f 93       	push	r23
     dbc:	8f 93       	push	r24
     dbe:	9f 93       	push	r25
     dc0:	af 93       	push	r26
     dc2:	bf 93       	push	r27
     dc4:	ef 93       	push	r30
     dc6:	ff 93       	push	r31
     dc8:	76 98       	cbi	0x0e, 6	; 14
     dca:	0e 94 cc 06 	call	0xd98	; 0xd98 <uart0_flush>
     dce:	10 92 1a 04 	sts	0x041A, r1	; 0x80041a <Modbus_intex>
     dd2:	8f ef       	ldi	r24, 0xFF	; 255
     dd4:	9f ef       	ldi	r25, 0xFF	; 255
     dd6:	90 93 01 01 	sts	0x0101, r25	; 0x800101 <__data_start+0x1>
     dda:	80 93 00 01 	sts	0x0100, r24	; 0x800100 <__data_start>
     dde:	e5 ed       	ldi	r30, 0xD5	; 213
     de0:	f4 e0       	ldi	r31, 0x04	; 4
     de2:	80 83       	st	Z, r24
     de4:	10 92 19 05 	sts	0x0519, r1	; 0x800519 <Read_Modstr+0x44>
     de8:	10 92 18 05 	sts	0x0518, r1	; 0x800518 <Read_Modstr+0x43>
     dec:	81 83       	std	Z+1, r24	; 0x01
     dee:	12 82       	std	Z+2, r1	; 0x02
     df0:	13 82       	std	Z+3, r1	; 0x03
     df2:	10 92 a1 00 	sts	0x00A1, r1	; 0x8000a1 <__TEXT_REGION_LENGTH__+0x7f80a1>
     df6:	ff 91       	pop	r31
     df8:	ef 91       	pop	r30
     dfa:	bf 91       	pop	r27
     dfc:	af 91       	pop	r26
     dfe:	9f 91       	pop	r25
     e00:	8f 91       	pop	r24
     e02:	7f 91       	pop	r23
     e04:	6f 91       	pop	r22
     e06:	5f 91       	pop	r21
     e08:	4f 91       	pop	r20
     e0a:	3f 91       	pop	r19
     e0c:	2f 91       	pop	r18
     e0e:	0f 90       	pop	r0
     e10:	0f be       	out	0x3f, r0	; 63
     e12:	0f 90       	pop	r0
     e14:	1f 90       	pop	r1
     e16:	18 95       	reti

00000e18 <__vector_28>:
     e18:	1f 92       	push	r1
     e1a:	0f 92       	push	r0
     e1c:	0f b6       	in	r0, 0x3f	; 63
     e1e:	0f 92       	push	r0
     e20:	11 24       	eor	r1, r1
     e22:	2f 93       	push	r18
     e24:	3f 93       	push	r19
     e26:	4f 93       	push	r20
     e28:	5f 93       	push	r21
     e2a:	8f 93       	push	r24
     e2c:	9f 93       	push	r25
     e2e:	ef 93       	push	r30
     e30:	ff 93       	push	r31
     e32:	20 91 c8 00 	lds	r18, 0x00C8	; 0x8000c8 <__TEXT_REGION_LENGTH__+0x7f80c8>
     e36:	30 91 ce 00 	lds	r19, 0x00CE	; 0x8000ce <__TEXT_REGION_LENGTH__+0x7f80ce>
     e3a:	28 71       	andi	r18, 0x18	; 24
     e3c:	80 91 10 01 	lds	r24, 0x0110	; 0x800110 <UART1_RxHead>
     e40:	90 e0       	ldi	r25, 0x00	; 0
     e42:	01 96       	adiw	r24, 0x01	; 1
     e44:	8f 77       	andi	r24, 0x7F	; 127
     e46:	99 27       	eor	r25, r25
     e48:	40 91 0f 01 	lds	r20, 0x010F	; 0x80010f <UART1_RxTail>
     e4c:	50 e0       	ldi	r21, 0x00	; 0
     e4e:	84 17       	cp	r24, r20
     e50:	95 07       	cpc	r25, r21
     e52:	39 f0       	breq	.+14     	; 0xe62 <__vector_28+0x4a>
     e54:	80 93 10 01 	sts	0x0110, r24	; 0x800110 <UART1_RxHead>
     e58:	fc 01       	movw	r30, r24
     e5a:	ed 5e       	subi	r30, 0xED	; 237
     e5c:	fe 4f       	sbci	r31, 0xFE	; 254
     e5e:	30 83       	st	Z, r19
     e60:	01 c0       	rjmp	.+2      	; 0xe64 <__vector_28+0x4c>
     e62:	22 e0       	ldi	r18, 0x02	; 2
     e64:	20 93 0e 01 	sts	0x010E, r18	; 0x80010e <__data_end>
     e68:	ff 91       	pop	r31
     e6a:	ef 91       	pop	r30
     e6c:	9f 91       	pop	r25
     e6e:	8f 91       	pop	r24
     e70:	5f 91       	pop	r21
     e72:	4f 91       	pop	r20
     e74:	3f 91       	pop	r19
     e76:	2f 91       	pop	r18
     e78:	0f 90       	pop	r0
     e7a:	0f be       	out	0x3f, r0	; 63
     e7c:	0f 90       	pop	r0
     e7e:	1f 90       	pop	r1
     e80:	18 95       	reti

00000e82 <__vector_29>:
     e82:	1f 92       	push	r1
     e84:	0f 92       	push	r0
     e86:	0f b6       	in	r0, 0x3f	; 63
     e88:	0f 92       	push	r0
     e8a:	11 24       	eor	r1, r1
     e8c:	8f 93       	push	r24
     e8e:	9f 93       	push	r25
     e90:	ef 93       	push	r30
     e92:	ff 93       	push	r31
     e94:	90 91 12 01 	lds	r25, 0x0112	; 0x800112 <UART1_TxHead>
     e98:	80 91 11 01 	lds	r24, 0x0111	; 0x800111 <UART1_TxTail>
     e9c:	98 17       	cp	r25, r24
     e9e:	79 f0       	breq	.+30     	; 0xebe <__vector_29+0x3c>
     ea0:	80 91 11 01 	lds	r24, 0x0111	; 0x800111 <UART1_TxTail>
     ea4:	90 e0       	ldi	r25, 0x00	; 0
     ea6:	01 96       	adiw	r24, 0x01	; 1
     ea8:	fc 01       	movw	r30, r24
     eaa:	ff 27       	eor	r31, r31
     eac:	80 93 11 01 	sts	0x0111, r24	; 0x800111 <UART1_TxTail>
     eb0:	15 9a       	sbi	0x02, 5	; 2
     eb2:	ed 56       	subi	r30, 0x6D	; 109
     eb4:	fe 4f       	sbci	r31, 0xFE	; 254
     eb6:	80 81       	ld	r24, Z
     eb8:	80 93 ce 00 	sts	0x00CE, r24	; 0x8000ce <__TEXT_REGION_LENGTH__+0x7f80ce>
     ebc:	0a c0       	rjmp	.+20     	; 0xed2 <__vector_29+0x50>
     ebe:	80 91 c9 00 	lds	r24, 0x00C9	; 0x8000c9 <__TEXT_REGION_LENGTH__+0x7f80c9>
     ec2:	8f 7d       	andi	r24, 0xDF	; 223
     ec4:	80 93 c9 00 	sts	0x00C9, r24	; 0x8000c9 <__TEXT_REGION_LENGTH__+0x7f80c9>
     ec8:	80 91 c9 00 	lds	r24, 0x00C9	; 0x8000c9 <__TEXT_REGION_LENGTH__+0x7f80c9>
     ecc:	80 64       	ori	r24, 0x40	; 64
     ece:	80 93 c9 00 	sts	0x00C9, r24	; 0x8000c9 <__TEXT_REGION_LENGTH__+0x7f80c9>
     ed2:	ff 91       	pop	r31
     ed4:	ef 91       	pop	r30
     ed6:	9f 91       	pop	r25
     ed8:	8f 91       	pop	r24
     eda:	0f 90       	pop	r0
     edc:	0f be       	out	0x3f, r0	; 63
     ede:	0f 90       	pop	r0
     ee0:	1f 90       	pop	r1
     ee2:	18 95       	reti

00000ee4 <__vector_30>:
     ee4:	1f 92       	push	r1
     ee6:	0f 92       	push	r0
     ee8:	0f b6       	in	r0, 0x3f	; 63
     eea:	0f 92       	push	r0
     eec:	11 24       	eor	r1, r1
     eee:	15 98       	cbi	0x02, 5	; 2
     ef0:	0f 90       	pop	r0
     ef2:	0f be       	out	0x3f, r0	; 63
     ef4:	0f 90       	pop	r0
     ef6:	1f 90       	pop	r1
     ef8:	18 95       	reti

00000efa <Init_RF>:
     efa:	88 e0       	ldi	r24, 0x08	; 8
     efc:	80 93 68 00 	sts	0x0068, r24	; 0x800068 <__TEXT_REGION_LENGTH__+0x7f8068>
     f00:	80 ef       	ldi	r24, 0xF0	; 240
     f02:	80 93 73 00 	sts	0x0073, r24	; 0x800073 <__TEXT_REGION_LENGTH__+0x7f8073>
     f06:	08 95       	ret

00000f08 <Display_Out>:
     f08:	cf 93       	push	r28
     f0a:	89 e0       	ldi	r24, 0x09	; 9
     f0c:	90 e0       	ldi	r25, 0x00	; 0
     f0e:	0e 94 24 24 	call	0x4848	; 0x4848 <eeprom_read_byte>
     f12:	88 23       	and	r24, r24
     f14:	c1 f0       	breq	.+48     	; 0xf46 <Display_Out+0x3e>
     f16:	c0 e0       	ldi	r28, 0x00	; 0
     f18:	80 91 cf 04 	lds	r24, 0x04CF	; 0x8004cf <Digits_disp>
     f1c:	c8 17       	cp	r28, r24
     f1e:	bc f4       	brge	.+46     	; 0xf4e <Display_Out+0x46>
     f20:	ec 2f       	mov	r30, r28
     f22:	0c 2e       	mov	r0, r28
     f24:	00 0c       	add	r0, r0
     f26:	ff 0b       	sbc	r31, r31
     f28:	e1 58       	subi	r30, 0x81	; 129
     f2a:	fb 4f       	sbci	r31, 0xFB	; 251
     f2c:	90 81       	ld	r25, Z
     f2e:	e9 2f       	mov	r30, r25
     f30:	ef 77       	andi	r30, 0x7F	; 127
     f32:	f0 e0       	ldi	r31, 0x00	; 0
     f34:	ef 5f       	subi	r30, 0xFF	; 255
     f36:	fd 4f       	sbci	r31, 0xFD	; 253
     f38:	84 91       	lpm	r24, Z
     f3a:	97 fd       	sbrc	r25, 7
     f3c:	81 60       	ori	r24, 0x01	; 1
     f3e:	0e 94 3a 01 	call	0x274	; 0x274 <byte_out>
     f42:	cf 5f       	subi	r28, 0xFF	; 255
     f44:	e9 cf       	rjmp	.-46     	; 0xf18 <Display_Out+0x10>
     f46:	c0 91 cf 04 	lds	r28, 0x04CF	; 0x8004cf <Digits_disp>
     f4a:	1c 16       	cp	r1, r28
     f4c:	1c f0       	brlt	.+6      	; 0xf54 <Display_Out+0x4c>
     f4e:	cf 91       	pop	r28
     f50:	0c 94 46 01 	jmp	0x28c	; 0x28c <do_rclk>
     f54:	c1 50       	subi	r28, 0x01	; 1
     f56:	ec 2f       	mov	r30, r28
     f58:	f0 e0       	ldi	r31, 0x00	; 0
     f5a:	e1 58       	subi	r30, 0x81	; 129
     f5c:	fb 4f       	sbci	r31, 0xFB	; 251
     f5e:	90 81       	ld	r25, Z
     f60:	e9 2f       	mov	r30, r25
     f62:	ef 77       	andi	r30, 0x7F	; 127
     f64:	f0 e0       	ldi	r31, 0x00	; 0
     f66:	ef 5f       	subi	r30, 0xFF	; 255
     f68:	fd 4f       	sbci	r31, 0xFD	; 253
     f6a:	84 91       	lpm	r24, Z
     f6c:	97 fd       	sbrc	r25, 7
     f6e:	81 60       	ori	r24, 0x01	; 1
     f70:	0e 94 3a 01 	call	0x274	; 0x274 <byte_out>
     f74:	ea cf       	rjmp	.-44     	; 0xf4a <Display_Out+0x42>

00000f76 <display_Clock>:
     f76:	cf 93       	push	r28
     f78:	df 93       	push	r29
     f7a:	cd b7       	in	r28, 0x3d	; 61
     f7c:	de b7       	in	r29, 0x3e	; 62
     f7e:	28 97       	sbiw	r28, 0x08	; 8
     f80:	0f b6       	in	r0, 0x3f	; 63
     f82:	f8 94       	cli
     f84:	de bf       	out	0x3e, r29	; 62
     f86:	0f be       	out	0x3f, r0	; 63
     f88:	cd bf       	out	0x3d, r28	; 61
     f8a:	8c e0       	ldi	r24, 0x0C	; 12
     f8c:	88 87       	std	Y+8, r24	; 0x08
     f8e:	ce 01       	movw	r24, r28
     f90:	01 96       	adiw	r24, 0x01	; 1
     f92:	0e 94 94 05 	call	0xb28	; 0xb28 <ds1302_update>
     f96:	9b 81       	ldd	r25, Y+3	; 0x03
     f98:	89 2f       	mov	r24, r25
     f9a:	82 95       	swap	r24
     f9c:	8f 70       	andi	r24, 0x0F	; 15
     f9e:	80 93 7f 04 	sts	0x047F, r24	; 0x80047f <display_out_buf>
     fa2:	20 91 22 04 	lds	r18, 0x0422	; 0x800422 <Clock_blink>
     fa6:	9f 70       	andi	r25, 0x0F	; 15
     fa8:	92 2b       	or	r25, r18
     faa:	90 93 80 04 	sts	0x0480, r25	; 0x800480 <display_out_buf+0x1>
     fae:	8a 81       	ldd	r24, Y+2	; 0x02
     fb0:	98 2f       	mov	r25, r24
     fb2:	92 95       	swap	r25
     fb4:	9f 70       	andi	r25, 0x0F	; 15
     fb6:	92 2b       	or	r25, r18
     fb8:	90 93 81 04 	sts	0x0481, r25	; 0x800481 <display_out_buf+0x2>
     fbc:	8f 70       	andi	r24, 0x0F	; 15
     fbe:	80 93 82 04 	sts	0x0482, r24	; 0x800482 <display_out_buf+0x3>
     fc2:	30 91 cf 04 	lds	r19, 0x04CF	; 0x8004cf <Digits_disp>
     fc6:	36 30       	cpi	r19, 0x06	; 6
     fc8:	79 f4       	brne	.+30     	; 0xfe8 <display_Clock+0x72>
     fca:	9f 77       	andi	r25, 0x7F	; 127
     fcc:	90 93 81 04 	sts	0x0481, r25	; 0x800481 <display_out_buf+0x2>
     fd0:	82 2b       	or	r24, r18
     fd2:	80 93 82 04 	sts	0x0482, r24	; 0x800482 <display_out_buf+0x3>
     fd6:	89 81       	ldd	r24, Y+1	; 0x01
     fd8:	98 2f       	mov	r25, r24
     fda:	92 95       	swap	r25
     fdc:	9f 70       	andi	r25, 0x0F	; 15
     fde:	90 93 83 04 	sts	0x0483, r25	; 0x800483 <display_out_buf+0x4>
     fe2:	8f 70       	andi	r24, 0x0F	; 15
     fe4:	80 93 84 04 	sts	0x0484, r24	; 0x800484 <display_out_buf+0x5>
     fe8:	0e 94 84 07 	call	0xf08	; 0xf08 <Display_Out>
     fec:	28 96       	adiw	r28, 0x08	; 8
     fee:	0f b6       	in	r0, 0x3f	; 63
     ff0:	f8 94       	cli
     ff2:	de bf       	out	0x3e, r29	; 62
     ff4:	0f be       	out	0x3f, r0	; 63
     ff6:	cd bf       	out	0x3d, r28	; 61
     ff8:	df 91       	pop	r29
     ffa:	cf 91       	pop	r28
     ffc:	08 95       	ret

00000ffe <display_Date>:
     ffe:	cf 93       	push	r28
    1000:	df 93       	push	r29
    1002:	cd b7       	in	r28, 0x3d	; 61
    1004:	de b7       	in	r29, 0x3e	; 62
    1006:	28 97       	sbiw	r28, 0x08	; 8
    1008:	0f b6       	in	r0, 0x3f	; 63
    100a:	f8 94       	cli
    100c:	de bf       	out	0x3e, r29	; 62
    100e:	0f be       	out	0x3f, r0	; 63
    1010:	cd bf       	out	0x3d, r28	; 61
    1012:	8c e0       	ldi	r24, 0x0C	; 12
    1014:	88 87       	std	Y+8, r24	; 0x08
    1016:	ce 01       	movw	r24, r28
    1018:	01 96       	adiw	r24, 0x01	; 1
    101a:	0e 94 94 05 	call	0xb28	; 0xb28 <ds1302_update>
    101e:	20 91 cf 04 	lds	r18, 0x04CF	; 0x8004cf <Digits_disp>
    1022:	8d 81       	ldd	r24, Y+5	; 0x05
    1024:	9e 81       	ldd	r25, Y+6	; 0x06
    1026:	26 30       	cpi	r18, 0x06	; 6
    1028:	b9 f4       	brne	.+46     	; 0x1058 <display_Date+0x5a>
    102a:	2d e0       	ldi	r18, 0x0D	; 13
    102c:	20 93 7f 04 	sts	0x047F, r18	; 0x80047f <display_out_buf>
    1030:	28 2f       	mov	r18, r24
    1032:	22 95       	swap	r18
    1034:	2f 70       	andi	r18, 0x0F	; 15
    1036:	20 93 80 04 	sts	0x0480, r18	; 0x800480 <display_out_buf+0x1>
    103a:	8f 70       	andi	r24, 0x0F	; 15
    103c:	80 93 81 04 	sts	0x0481, r24	; 0x800481 <display_out_buf+0x2>
    1040:	8b e0       	ldi	r24, 0x0B	; 11
    1042:	80 93 82 04 	sts	0x0482, r24	; 0x800482 <display_out_buf+0x3>
    1046:	89 2f       	mov	r24, r25
    1048:	82 95       	swap	r24
    104a:	8f 70       	andi	r24, 0x0F	; 15
    104c:	80 93 83 04 	sts	0x0483, r24	; 0x800483 <display_out_buf+0x4>
    1050:	9f 70       	andi	r25, 0x0F	; 15
    1052:	90 93 84 04 	sts	0x0484, r25	; 0x800484 <display_out_buf+0x5>
    1056:	27 c0       	rjmp	.+78     	; 0x10a6 <display_Date+0xa8>
    1058:	28 2f       	mov	r18, r24
    105a:	22 95       	swap	r18
    105c:	2f 70       	andi	r18, 0x0F	; 15
    105e:	20 93 7f 04 	sts	0x047F, r18	; 0x80047f <display_out_buf>
    1062:	8f 70       	andi	r24, 0x0F	; 15
    1064:	80 68       	ori	r24, 0x80	; 128
    1066:	80 93 80 04 	sts	0x0480, r24	; 0x800480 <display_out_buf+0x1>
    106a:	89 2f       	mov	r24, r25
    106c:	82 95       	swap	r24
    106e:	8f 70       	andi	r24, 0x0F	; 15
    1070:	80 93 81 04 	sts	0x0481, r24	; 0x800481 <display_out_buf+0x2>
    1074:	9f 70       	andi	r25, 0x0F	; 15
    1076:	90 93 82 04 	sts	0x0482, r25	; 0x800482 <display_out_buf+0x3>
    107a:	84 e0       	ldi	r24, 0x04	; 4
    107c:	90 e0       	ldi	r25, 0x00	; 0
    107e:	0e 94 24 24 	call	0x4848	; 0x4848 <eeprom_read_byte>
    1082:	84 30       	cpi	r24, 0x04	; 4
    1084:	81 f4       	brne	.+32     	; 0x10a6 <display_Date+0xa8>
    1086:	80 91 70 04 	lds	r24, 0x0470	; 0x800470 <last_temperature>
    108a:	80 93 83 04 	sts	0x0483, r24	; 0x800483 <display_out_buf+0x4>
    108e:	80 91 71 04 	lds	r24, 0x0471	; 0x800471 <last_temperature+0x1>
    1092:	80 93 84 04 	sts	0x0484, r24	; 0x800484 <display_out_buf+0x5>
    1096:	80 91 72 04 	lds	r24, 0x0472	; 0x800472 <last_temperature+0x2>
    109a:	80 93 85 04 	sts	0x0485, r24	; 0x800485 <display_out_buf+0x6>
    109e:	80 91 73 04 	lds	r24, 0x0473	; 0x800473 <last_temperature+0x3>
    10a2:	80 93 86 04 	sts	0x0486, r24	; 0x800486 <display_out_buf+0x7>
    10a6:	0e 94 84 07 	call	0xf08	; 0xf08 <Display_Out>
    10aa:	28 96       	adiw	r28, 0x08	; 8
    10ac:	0f b6       	in	r0, 0x3f	; 63
    10ae:	f8 94       	cli
    10b0:	de bf       	out	0x3e, r29	; 62
    10b2:	0f be       	out	0x3f, r0	; 63
    10b4:	cd bf       	out	0x3d, r28	; 61
    10b6:	df 91       	pop	r29
    10b8:	cf 91       	pop	r28
    10ba:	08 95       	ret

000010bc <display_temperature>:
    10bc:	ff 92       	push	r15
    10be:	0f 93       	push	r16
    10c0:	1f 93       	push	r17
    10c2:	cf 93       	push	r28
    10c4:	df 93       	push	r29
    10c6:	cd b7       	in	r28, 0x3d	; 61
    10c8:	de b7       	in	r29, 0x3e	; 62
    10ca:	6f 97       	sbiw	r28, 0x1f	; 31
    10cc:	0f b6       	in	r0, 0x3f	; 63
    10ce:	f8 94       	cli
    10d0:	de bf       	out	0x3e, r29	; 62
    10d2:	0f be       	out	0x3f, r0	; 63
    10d4:	cd bf       	out	0x3d, r28	; 61
    10d6:	84 e0       	ldi	r24, 0x04	; 4
    10d8:	90 e0       	ldi	r25, 0x00	; 0
    10da:	0e 94 24 24 	call	0x4848	; 0x4848 <eeprom_read_byte>
    10de:	f8 2e       	mov	r15, r24
    10e0:	41 e0       	ldi	r20, 0x01	; 1
    10e2:	65 e2       	ldi	r22, 0x25	; 37
    10e4:	70 e0       	ldi	r23, 0x00	; 0
    10e6:	ce 01       	movw	r24, r28
    10e8:	01 96       	adiw	r24, 0x01	; 1
    10ea:	0e 94 71 03 	call	0x6e2	; 0x6e2 <DS18x20_Init>
    10ee:	88 23       	and	r24, r24
    10f0:	21 f0       	breq	.+8      	; 0x10fa <display_temperature+0x3e>
    10f2:	8b e0       	ldi	r24, 0x0B	; 11
    10f4:	80 93 7f 04 	sts	0x047F, r24	; 0x80047f <display_out_buf>
    10f8:	3f c0       	rjmp	.+126    	; 0x1178 <display_temperature+0xbc>
    10fa:	8d 89       	ldd	r24, Y+21	; 0x15
    10fc:	ff 20       	and	r15, r15
    10fe:	21 f0       	breq	.+8      	; 0x1108 <display_temperature+0x4c>
    1100:	81 30       	cpi	r24, 0x01	; 1
    1102:	31 f4       	brne	.+12     	; 0x1110 <display_temperature+0x54>
    1104:	8f e5       	ldi	r24, 0x5F	; 95
    1106:	03 c0       	rjmp	.+6      	; 0x110e <display_temperature+0x52>
    1108:	81 30       	cpi	r24, 0x01	; 1
    110a:	11 f4       	brne	.+4      	; 0x1110 <display_temperature+0x54>
    110c:	8f e1       	ldi	r24, 0x1F	; 31
    110e:	88 8b       	std	Y+16, r24	; 0x10
    1110:	ce 01       	movw	r24, r28
    1112:	01 96       	adiw	r24, 0x01	; 1
    1114:	0e 94 20 04 	call	0x840	; 0x840 <DS18x20_WriteScratchpad>
    1118:	ce 01       	movw	r24, r28
    111a:	01 96       	adiw	r24, 0x01	; 1
    111c:	0e 94 e6 03 	call	0x7cc	; 0x7cc <DS18x20_MeasureTemperature>
    1120:	88 23       	and	r24, r24
    1122:	a1 f1       	breq	.+104    	; 0x118c <display_temperature+0xd0>
    1124:	ce 01       	movw	r24, r28
    1126:	01 96       	adiw	r24, 0x01	; 1
    1128:	0e 94 41 04 	call	0x882	; 0x882 <DS18x20_TemperatureValue>
    112c:	8e 01       	movw	r16, r28
    112e:	0a 5e       	subi	r16, 0xEA	; 234
    1130:	1f 4f       	sbci	r17, 0xFF	; 255
    1132:	24 e0       	ldi	r18, 0x04	; 4
    1134:	49 e0       	ldi	r20, 0x09	; 9
    1136:	0e 94 9d 21 	call	0x433a	; 0x433a <dtostrf>
    113a:	2f 89       	ldd	r18, Y+23	; 0x17
    113c:	98 8d       	ldd	r25, Y+24	; 0x18
    113e:	89 8d       	ldd	r24, Y+25	; 0x19
    1140:	2d 32       	cpi	r18, 0x2D	; 45
    1142:	39 f4       	brne	.+14     	; 0x1152 <display_temperature+0x96>
    1144:	2b e0       	ldi	r18, 0x0B	; 11
    1146:	20 93 7f 04 	sts	0x047F, r18	; 0x80047f <display_out_buf>
    114a:	9f 70       	andi	r25, 0x0F	; 15
    114c:	90 93 80 04 	sts	0x0480, r25	; 0x800480 <display_out_buf+0x1>
    1150:	0e c0       	rjmp	.+28     	; 0x116e <display_temperature+0xb2>
    1152:	9d 32       	cpi	r25, 0x2D	; 45
    1154:	11 f4       	brne	.+4      	; 0x115a <display_temperature+0x9e>
    1156:	9b e0       	ldi	r25, 0x0B	; 11
    1158:	01 c0       	rjmp	.+2      	; 0x115c <display_temperature+0xa0>
    115a:	9f 70       	andi	r25, 0x0F	; 15
    115c:	90 93 7f 04 	sts	0x047F, r25	; 0x80047f <display_out_buf>
    1160:	8f 70       	andi	r24, 0x0F	; 15
    1162:	ff 20       	and	r15, r15
    1164:	49 f0       	breq	.+18     	; 0x1178 <display_temperature+0xbc>
    1166:	80 68       	ori	r24, 0x80	; 128
    1168:	80 93 80 04 	sts	0x0480, r24	; 0x800480 <display_out_buf+0x1>
    116c:	8b 8d       	ldd	r24, Y+27	; 0x1b
    116e:	8f 70       	andi	r24, 0x0F	; 15
    1170:	80 93 81 04 	sts	0x0481, r24	; 0x800481 <display_out_buf+0x2>
    1174:	8c e0       	ldi	r24, 0x0C	; 12
    1176:	06 c0       	rjmp	.+12     	; 0x1184 <display_temperature+0xc8>
    1178:	80 93 80 04 	sts	0x0480, r24	; 0x800480 <display_out_buf+0x1>
    117c:	8c e0       	ldi	r24, 0x0C	; 12
    117e:	80 93 81 04 	sts	0x0481, r24	; 0x800481 <display_out_buf+0x2>
    1182:	8a e0       	ldi	r24, 0x0A	; 10
    1184:	80 93 82 04 	sts	0x0482, r24	; 0x800482 <display_out_buf+0x3>
    1188:	0e 94 84 07 	call	0xf08	; 0xf08 <Display_Out>
    118c:	6f 96       	adiw	r28, 0x1f	; 31
    118e:	0f b6       	in	r0, 0x3f	; 63
    1190:	f8 94       	cli
    1192:	de bf       	out	0x3e, r29	; 62
    1194:	0f be       	out	0x3f, r0	; 63
    1196:	cd bf       	out	0x3d, r28	; 61
    1198:	df 91       	pop	r29
    119a:	cf 91       	pop	r28
    119c:	1f 91       	pop	r17
    119e:	0f 91       	pop	r16
    11a0:	ff 90       	pop	r15
    11a2:	08 95       	ret

000011a4 <timer_display>:
    11a4:	90 91 76 04 	lds	r25, 0x0476	; 0x800476 <timer>
    11a8:	80 91 77 04 	lds	r24, 0x0477	; 0x800477 <timer+0x1>
    11ac:	91 11       	cpse	r25, r1
    11ae:	16 c0       	rjmp	.+44     	; 0x11dc <timer_display+0x38>
    11b0:	98 2f       	mov	r25, r24
    11b2:	92 95       	swap	r25
    11b4:	9f 70       	andi	r25, 0x0F	; 15
    11b6:	90 93 7f 04 	sts	0x047F, r25	; 0x80047f <display_out_buf>
    11ba:	8f 70       	andi	r24, 0x0F	; 15
    11bc:	80 68       	ori	r24, 0x80	; 128
    11be:	80 93 80 04 	sts	0x0480, r24	; 0x800480 <display_out_buf+0x1>
    11c2:	80 91 78 04 	lds	r24, 0x0478	; 0x800478 <timer+0x2>
    11c6:	98 2f       	mov	r25, r24
    11c8:	92 95       	swap	r25
    11ca:	9f 70       	andi	r25, 0x0F	; 15
    11cc:	90 93 81 04 	sts	0x0481, r25	; 0x800481 <display_out_buf+0x2>
    11d0:	8f 70       	andi	r24, 0x0F	; 15
    11d2:	80 93 82 04 	sts	0x0482, r24	; 0x800482 <display_out_buf+0x3>
    11d6:	10 92 20 04 	sts	0x0420, r1	; 0x800420 <Timer_blink_on>
    11da:	16 c0       	rjmp	.+44     	; 0x1208 <timer_display+0x64>
    11dc:	29 2f       	mov	r18, r25
    11de:	22 95       	swap	r18
    11e0:	2f 70       	andi	r18, 0x0F	; 15
    11e2:	20 93 7f 04 	sts	0x047F, r18	; 0x80047f <display_out_buf>
    11e6:	9f 70       	andi	r25, 0x0F	; 15
    11e8:	20 91 22 04 	lds	r18, 0x0422	; 0x800422 <Clock_blink>
    11ec:	92 2b       	or	r25, r18
    11ee:	90 93 80 04 	sts	0x0480, r25	; 0x800480 <display_out_buf+0x1>
    11f2:	98 2f       	mov	r25, r24
    11f4:	92 95       	swap	r25
    11f6:	9f 70       	andi	r25, 0x0F	; 15
    11f8:	90 93 81 04 	sts	0x0481, r25	; 0x800481 <display_out_buf+0x2>
    11fc:	8f 70       	andi	r24, 0x0F	; 15
    11fe:	80 93 82 04 	sts	0x0482, r24	; 0x800482 <display_out_buf+0x3>
    1202:	81 e0       	ldi	r24, 0x01	; 1
    1204:	80 93 20 04 	sts	0x0420, r24	; 0x800420 <Timer_blink_on>
    1208:	0c 94 84 07 	jmp	0xf08	; 0xf08 <Display_Out>

0000120c <F_menu_check>:
    120c:	28 2f       	mov	r18, r24
    120e:	86 2f       	mov	r24, r22
    1210:	22 30       	cpi	r18, 0x02	; 2
    1212:	89 f4       	brne	.+34     	; 0x1236 <F_menu_check+0x2a>
    1214:	9f e0       	ldi	r25, 0x0F	; 15
    1216:	90 93 79 04 	sts	0x0479, r25	; 0x800479 <set_clock_buf>
    121a:	9d e0       	ldi	r25, 0x0D	; 13
    121c:	90 93 7a 04 	sts	0x047A, r25	; 0x80047a <set_clock_buf+0x1>
    1220:	6a e0       	ldi	r22, 0x0A	; 10
    1222:	0e 94 77 21 	call	0x42ee	; 0x42ee <__udivmodqi4>
    1226:	8f 70       	andi	r24, 0x0F	; 15
    1228:	80 93 7b 04 	sts	0x047B, r24	; 0x80047b <set_clock_buf+0x2>
    122c:	90 93 7c 04 	sts	0x047C, r25	; 0x80047c <set_clock_buf+0x3>
    1230:	20 93 d4 04 	sts	0x04D4, r18	; 0x8004d4 <cursor>
    1234:	08 95       	ret
    1236:	23 30       	cpi	r18, 0x03	; 3
    1238:	81 f4       	brne	.+32     	; 0x125a <F_menu_check+0x4e>
    123a:	96 e1       	ldi	r25, 0x16	; 22
    123c:	90 93 79 04 	sts	0x0479, r25	; 0x800479 <set_clock_buf>
    1240:	9d e0       	ldi	r25, 0x0D	; 13
    1242:	90 93 7a 04 	sts	0x047A, r25	; 0x80047a <set_clock_buf+0x1>
    1246:	6a e0       	ldi	r22, 0x0A	; 10
    1248:	0e 94 77 21 	call	0x42ee	; 0x42ee <__udivmodqi4>
    124c:	8f 70       	andi	r24, 0x0F	; 15
    124e:	80 93 7b 04 	sts	0x047B, r24	; 0x80047b <set_clock_buf+0x2>
    1252:	90 93 7c 04 	sts	0x047C, r25	; 0x80047c <set_clock_buf+0x3>
    1256:	82 e0       	ldi	r24, 0x02	; 2
    1258:	0c c0       	rjmp	.+24     	; 0x1272 <F_menu_check+0x66>
    125a:	91 e1       	ldi	r25, 0x11	; 17
    125c:	90 93 79 04 	sts	0x0479, r25	; 0x800479 <set_clock_buf>
    1260:	2f 5f       	subi	r18, 0xFF	; 255
    1262:	20 93 7a 04 	sts	0x047A, r18	; 0x80047a <set_clock_buf+0x1>
    1266:	9d e0       	ldi	r25, 0x0D	; 13
    1268:	90 93 7b 04 	sts	0x047B, r25	; 0x80047b <set_clock_buf+0x2>
    126c:	60 93 7c 04 	sts	0x047C, r22	; 0x80047c <set_clock_buf+0x3>
    1270:	83 e0       	ldi	r24, 0x03	; 3
    1272:	80 93 d4 04 	sts	0x04D4, r24	; 0x8004d4 <cursor>
    1276:	08 95       	ret

00001278 <Fav_menu_check>:
    1278:	97 e1       	ldi	r25, 0x17	; 23
    127a:	90 93 79 04 	sts	0x0479, r25	; 0x800479 <set_clock_buf>
    127e:	91 e0       	ldi	r25, 0x01	; 1
    1280:	98 0f       	add	r25, r24
    1282:	90 93 7a 04 	sts	0x047A, r25	; 0x80047a <set_clock_buf+0x1>
    1286:	81 11       	cpse	r24, r1
    1288:	0b c0       	rjmp	.+22     	; 0x12a0 <Fav_menu_check+0x28>
    128a:	86 2f       	mov	r24, r22
    128c:	6a e0       	ldi	r22, 0x0A	; 10
    128e:	0e 94 77 21 	call	0x42ee	; 0x42ee <__udivmodqi4>
    1292:	8f 70       	andi	r24, 0x0F	; 15
    1294:	80 93 7b 04 	sts	0x047B, r24	; 0x80047b <set_clock_buf+0x2>
    1298:	90 93 7c 04 	sts	0x047C, r25	; 0x80047c <set_clock_buf+0x3>
    129c:	82 e0       	ldi	r24, 0x02	; 2
    129e:	06 c0       	rjmp	.+12     	; 0x12ac <Fav_menu_check+0x34>
    12a0:	8d e0       	ldi	r24, 0x0D	; 13
    12a2:	80 93 7b 04 	sts	0x047B, r24	; 0x80047b <set_clock_buf+0x2>
    12a6:	60 93 7c 04 	sts	0x047C, r22	; 0x80047c <set_clock_buf+0x3>
    12aa:	83 e0       	ldi	r24, 0x03	; 3
    12ac:	80 93 d4 04 	sts	0x04D4, r24	; 0x8004d4 <cursor>
    12b0:	08 95       	ret

000012b2 <Buzzer>:
    12b2:	88 23       	and	r24, r24
    12b4:	19 f0       	breq	.+6      	; 0x12bc <Buzzer+0xa>
    12b6:	cb 01       	movw	r24, r22
    12b8:	0c 94 2c 01 	jmp	0x258	; 0x258 <Buzzer.part.7>
    12bc:	10 92 91 00 	sts	0x0091, r1	; 0x800091 <__TEXT_REGION_LENGTH__+0x7f8091>
    12c0:	2b 98       	cbi	0x05, 3	; 5
    12c2:	08 95       	ret

000012c4 <Display_set_menu>:
    12c4:	a9 e7       	ldi	r26, 0x79	; 121
    12c6:	b4 e0       	ldi	r27, 0x04	; 4
    12c8:	ef e7       	ldi	r30, 0x7F	; 127
    12ca:	f4 e0       	ldi	r31, 0x04	; 4
    12cc:	80 e0       	ldi	r24, 0x00	; 0
    12ce:	90 e0       	ldi	r25, 0x00	; 0
    12d0:	4d e0       	ldi	r20, 0x0D	; 13
    12d2:	20 91 cf 04 	lds	r18, 0x04CF	; 0x8004cf <Digits_disp>
    12d6:	02 2e       	mov	r0, r18
    12d8:	00 0c       	add	r0, r0
    12da:	33 0b       	sbc	r19, r19
    12dc:	82 17       	cp	r24, r18
    12de:	93 07       	cpc	r25, r19
    12e0:	5c f4       	brge	.+22     	; 0x12f8 <Display_set_menu+0x34>
    12e2:	84 30       	cpi	r24, 0x04	; 4
    12e4:	91 05       	cpc	r25, r1
    12e6:	1c f4       	brge	.+6      	; 0x12ee <Display_set_menu+0x2a>
    12e8:	2c 91       	ld	r18, X
    12ea:	20 83       	st	Z, r18
    12ec:	01 c0       	rjmp	.+2      	; 0x12f0 <Display_set_menu+0x2c>
    12ee:	40 83       	st	Z, r20
    12f0:	01 96       	adiw	r24, 0x01	; 1
    12f2:	11 96       	adiw	r26, 0x01	; 1
    12f4:	31 96       	adiw	r30, 0x01	; 1
    12f6:	ed cf       	rjmp	.-38     	; 0x12d2 <Display_set_menu+0xe>
    12f8:	0c 94 84 07 	jmp	0xf08	; 0xf08 <Display_Out>

000012fc <Display_set_clock>:
    12fc:	90 91 cf 04 	lds	r25, 0x04CF	; 0x8004cf <Digits_disp>
    1300:	80 91 7a 04 	lds	r24, 0x047A	; 0x80047a <set_clock_buf+0x1>
    1304:	94 30       	cpi	r25, 0x04	; 4
    1306:	c1 f4       	brne	.+48     	; 0x1338 <Display_set_clock+0x3c>
    1308:	90 91 d4 04 	lds	r25, 0x04D4	; 0x8004d4 <cursor>
    130c:	94 30       	cpi	r25, 0x04	; 4
    130e:	a4 f0       	brlt	.+40     	; 0x1338 <Display_set_clock+0x3c>
    1310:	90 91 30 04 	lds	r25, 0x0430	; 0x800430 <user_instruction>
    1314:	96 36       	cpi	r25, 0x66	; 102
    1316:	81 f0       	breq	.+32     	; 0x1338 <Display_set_clock+0x3c>
    1318:	92 e0       	ldi	r25, 0x02	; 2
    131a:	90 93 31 04 	sts	0x0431, r25	; 0x800431 <shift>
    131e:	8f 77       	andi	r24, 0x7F	; 127
    1320:	80 93 7a 04 	sts	0x047A, r24	; 0x80047a <set_clock_buf+0x1>
    1324:	80 91 7b 04 	lds	r24, 0x047B	; 0x80047b <set_clock_buf+0x2>
    1328:	8f 77       	andi	r24, 0x7F	; 127
    132a:	80 93 7b 04 	sts	0x047B, r24	; 0x80047b <set_clock_buf+0x2>
    132e:	af e7       	ldi	r26, 0x7F	; 127
    1330:	b4 e0       	ldi	r27, 0x04	; 4
    1332:	80 e0       	ldi	r24, 0x00	; 0
    1334:	90 e0       	ldi	r25, 0x00	; 0
    1336:	32 c0       	rjmp	.+100    	; 0x139c <Display_set_clock+0xa0>
    1338:	90 91 cf 04 	lds	r25, 0x04CF	; 0x8004cf <Digits_disp>
    133c:	94 30       	cpi	r25, 0x04	; 4
    133e:	41 f4       	brne	.+16     	; 0x1350 <Display_set_clock+0x54>
    1340:	90 91 d4 04 	lds	r25, 0x04D4	; 0x8004d4 <cursor>
    1344:	94 30       	cpi	r25, 0x04	; 4
    1346:	24 f0       	brlt	.+8      	; 0x1350 <Display_set_clock+0x54>
    1348:	90 91 30 04 	lds	r25, 0x0430	; 0x800430 <user_instruction>
    134c:	95 36       	cpi	r25, 0x65	; 101
    134e:	21 f7       	brne	.-56     	; 0x1318 <Display_set_clock+0x1c>
    1350:	20 91 30 04 	lds	r18, 0x0430	; 0x800430 <user_instruction>
    1354:	90 91 7c 04 	lds	r25, 0x047C	; 0x80047c <set_clock_buf+0x3>
    1358:	24 34       	cpi	r18, 0x44	; 68
    135a:	61 f0       	breq	.+24     	; 0x1374 <Display_set_clock+0x78>
    135c:	20 91 30 04 	lds	r18, 0x0430	; 0x800430 <user_instruction>
    1360:	24 36       	cpi	r18, 0x64	; 100
    1362:	41 f0       	breq	.+16     	; 0x1374 <Display_set_clock+0x78>
    1364:	20 91 30 04 	lds	r18, 0x0430	; 0x800430 <user_instruction>
    1368:	23 36       	cpi	r18, 0x63	; 99
    136a:	51 f4       	brne	.+20     	; 0x1380 <Display_set_clock+0x84>
    136c:	20 91 d4 04 	lds	r18, 0x04D4	; 0x8004d4 <cursor>
    1370:	22 30       	cpi	r18, 0x02	; 2
    1372:	14 f4       	brge	.+4      	; 0x1378 <Display_set_clock+0x7c>
    1374:	10 92 31 04 	sts	0x0431, r1	; 0x800431 <shift>
    1378:	80 68       	ori	r24, 0x80	; 128
    137a:	80 93 7a 04 	sts	0x047A, r24	; 0x80047a <set_clock_buf+0x1>
    137e:	0a c0       	rjmp	.+20     	; 0x1394 <Display_set_clock+0x98>
    1380:	10 92 31 04 	sts	0x0431, r1	; 0x800431 <shift>
    1384:	80 68       	ori	r24, 0x80	; 128
    1386:	80 93 7a 04 	sts	0x047A, r24	; 0x80047a <set_clock_buf+0x1>
    138a:	80 91 7b 04 	lds	r24, 0x047B	; 0x80047b <set_clock_buf+0x2>
    138e:	80 68       	ori	r24, 0x80	; 128
    1390:	80 93 7b 04 	sts	0x047B, r24	; 0x80047b <set_clock_buf+0x2>
    1394:	90 68       	ori	r25, 0x80	; 128
    1396:	90 93 7c 04 	sts	0x047C, r25	; 0x80047c <set_clock_buf+0x3>
    139a:	c9 cf       	rjmp	.-110    	; 0x132e <Display_set_clock+0x32>
    139c:	20 91 31 04 	lds	r18, 0x0431	; 0x800431 <shift>
    13a0:	fc 01       	movw	r30, r24
    13a2:	e7 58       	subi	r30, 0x87	; 135
    13a4:	fb 4f       	sbci	r31, 0xFB	; 251
    13a6:	e2 0f       	add	r30, r18
    13a8:	f1 1d       	adc	r31, r1
    13aa:	27 fd       	sbrc	r18, 7
    13ac:	fa 95       	dec	r31
    13ae:	20 81       	ld	r18, Z
    13b0:	2d 93       	st	X+, r18
    13b2:	01 96       	adiw	r24, 0x01	; 1
    13b4:	86 30       	cpi	r24, 0x06	; 6
    13b6:	91 05       	cpc	r25, r1
    13b8:	89 f7       	brne	.-30     	; 0x139c <Display_set_clock+0xa0>
    13ba:	8d e0       	ldi	r24, 0x0D	; 13
    13bc:	80 93 85 04 	sts	0x0485, r24	; 0x800485 <display_out_buf+0x6>
    13c0:	80 93 86 04 	sts	0x0486, r24	; 0x800486 <display_out_buf+0x7>
    13c4:	10 92 22 04 	sts	0x0422, r1	; 0x800422 <Clock_blink>
    13c8:	0c 94 84 07 	jmp	0xf08	; 0xf08 <Display_Out>

000013cc <photo_sample>:
    13cc:	cf 93       	push	r28
    13ce:	80 91 79 00 	lds	r24, 0x0079	; 0x800079 <__TEXT_REGION_LENGTH__+0x7f8079>
    13d2:	8d 30       	cpi	r24, 0x0D	; 13
    13d4:	28 f0       	brcs	.+10     	; 0x13e0 <photo_sample+0x14>
    13d6:	82 95       	swap	r24
    13d8:	8f 70       	andi	r24, 0x0F	; 15
    13da:	c1 e1       	ldi	r28, 0x11	; 17
    13dc:	c8 1b       	sub	r28, r24
    13de:	01 c0       	rjmp	.+2      	; 0x13e2 <photo_sample+0x16>
    13e0:	c0 e1       	ldi	r28, 0x10	; 16
    13e2:	80 91 08 01 	lds	r24, 0x0108	; 0x800108 <samples_metter>
    13e6:	8f 3f       	cpi	r24, 0xFF	; 255
    13e8:	e1 f4       	brne	.+56     	; 0x1422 <photo_sample+0x56>
    13ea:	10 92 08 01 	sts	0x0108, r1	; 0x800108 <samples_metter>
    13ee:	82 e0       	ldi	r24, 0x02	; 2
    13f0:	90 e0       	ldi	r25, 0x00	; 0
    13f2:	0e 94 24 24 	call	0x4848	; 0x4848 <eeprom_read_byte>
    13f6:	88 23       	and	r24, r24
    13f8:	19 f0       	breq	.+6      	; 0x1400 <photo_sample+0x34>
    13fa:	80 93 09 01 	sts	0x0109, r24	; 0x800109 <sram_brigt>
    13fe:	02 c0       	rjmp	.+4      	; 0x1404 <photo_sample+0x38>
    1400:	c0 93 09 01 	sts	0x0109, r28	; 0x800109 <sram_brigt>
    1404:	8a e0       	ldi	r24, 0x0A	; 10
    1406:	90 e0       	ldi	r25, 0x00	; 0
    1408:	0e 94 24 24 	call	0x4848	; 0x4848 <eeprom_read_byte>
    140c:	88 23       	and	r24, r24
    140e:	61 f1       	breq	.+88     	; 0x1468 <photo_sample+0x9c>
    1410:	88 e0       	ldi	r24, 0x08	; 8
    1412:	90 e0       	ldi	r25, 0x00	; 0
    1414:	0e 94 24 24 	call	0x4848	; 0x4848 <eeprom_read_byte>
    1418:	68 2f       	mov	r22, r24
    141a:	80 91 09 01 	lds	r24, 0x0109	; 0x800109 <sram_brigt>
    141e:	0e 94 b2 01 	call	0x364	; 0x364 <TLC_config_byte>
    1422:	80 91 08 01 	lds	r24, 0x0108	; 0x800108 <samples_metter>
    1426:	e8 2f       	mov	r30, r24
    1428:	08 2e       	mov	r0, r24
    142a:	00 0c       	add	r0, r0
    142c:	ff 0b       	sbc	r31, r31
    142e:	ee 5c       	subi	r30, 0xCE	; 206
    1430:	fb 4f       	sbci	r31, 0xFB	; 251
    1432:	c0 83       	st	Z, r28
    1434:	8f 5f       	subi	r24, 0xFF	; 255
    1436:	80 93 08 01 	sts	0x0108, r24	; 0x800108 <samples_metter>
    143a:	8c 33       	cpi	r24, 0x3C	; 60
    143c:	0c f1       	brlt	.+66     	; 0x1480 <photo_sample+0xb4>
    143e:	e2 e3       	ldi	r30, 0x32	; 50
    1440:	f4 e0       	ldi	r31, 0x04	; 4
    1442:	2e e6       	ldi	r18, 0x6E	; 110
    1444:	34 e0       	ldi	r19, 0x04	; 4
    1446:	80 e0       	ldi	r24, 0x00	; 0
    1448:	90 e0       	ldi	r25, 0x00	; 0
    144a:	41 91       	ld	r20, Z+
    144c:	84 0f       	add	r24, r20
    144e:	91 1d       	adc	r25, r1
    1450:	2e 17       	cp	r18, r30
    1452:	3f 07       	cpc	r19, r31
    1454:	d1 f7       	brne	.-12     	; 0x144a <photo_sample+0x7e>
    1456:	10 92 08 01 	sts	0x0108, r1	; 0x800108 <samples_metter>
    145a:	6c e3       	ldi	r22, 0x3C	; 60
    145c:	70 e0       	ldi	r23, 0x00	; 0
    145e:	0e 94 83 21 	call	0x4306	; 0x4306 <__udivmodhi4>
    1462:	60 93 09 01 	sts	0x0109, r22	; 0x800109 <sram_brigt>
    1466:	0c c0       	rjmp	.+24     	; 0x1480 <photo_sample+0xb4>
    1468:	80 91 08 01 	lds	r24, 0x0108	; 0x800108 <samples_metter>
    146c:	e8 2f       	mov	r30, r24
    146e:	08 2e       	mov	r0, r24
    1470:	00 0c       	add	r0, r0
    1472:	ff 0b       	sbc	r31, r31
    1474:	ee 5c       	subi	r30, 0xCE	; 206
    1476:	fb 4f       	sbci	r31, 0xFB	; 251
    1478:	c0 83       	st	Z, r28
    147a:	8f 5f       	subi	r24, 0xFF	; 255
    147c:	80 93 08 01 	sts	0x0108, r24	; 0x800108 <samples_metter>
    1480:	cf 91       	pop	r28
    1482:	08 95       	ret

00001484 <chek_timer_alarms>:
    1484:	0f 93       	push	r16
    1486:	1f 93       	push	r17
    1488:	cf 93       	push	r28
    148a:	df 93       	push	r29
    148c:	80 91 74 04 	lds	r24, 0x0474	; 0x800474 <alarm>
    1490:	88 23       	and	r24, r24
    1492:	69 f0       	breq	.+26     	; 0x14ae <chek_timer_alarms+0x2a>
    1494:	80 91 75 04 	lds	r24, 0x0475	; 0x800475 <alarm+0x1>
    1498:	81 50       	subi	r24, 0x01	; 1
    149a:	80 93 75 04 	sts	0x0475, r24	; 0x800475 <alarm+0x1>
    149e:	81 11       	cpse	r24, r1
    14a0:	06 c0       	rjmp	.+12     	; 0x14ae <chek_timer_alarms+0x2a>
    14a2:	10 92 74 04 	sts	0x0474, r1	; 0x800474 <alarm>
    14a6:	68 ee       	ldi	r22, 0xE8	; 232
    14a8:	73 e0       	ldi	r23, 0x03	; 3
    14aa:	0e 94 59 09 	call	0x12b2	; 0x12b2 <Buzzer>
    14ae:	86 e1       	ldi	r24, 0x16	; 22
    14b0:	90 e0       	ldi	r25, 0x00	; 0
    14b2:	0e 94 24 24 	call	0x4848	; 0x4848 <eeprom_read_byte>
    14b6:	08 2f       	mov	r16, r24
    14b8:	87 e1       	ldi	r24, 0x17	; 23
    14ba:	90 e0       	ldi	r25, 0x00	; 0
    14bc:	0e 94 24 24 	call	0x4848	; 0x4848 <eeprom_read_byte>
    14c0:	18 2f       	mov	r17, r24
    14c2:	88 e1       	ldi	r24, 0x18	; 24
    14c4:	90 e0       	ldi	r25, 0x00	; 0
    14c6:	0e 94 24 24 	call	0x4848	; 0x4848 <eeprom_read_byte>
    14ca:	c0 91 76 04 	lds	r28, 0x0476	; 0x800476 <timer>
    14ce:	d0 e0       	ldi	r29, 0x00	; 0
    14d0:	20 2f       	mov	r18, r16
    14d2:	00 0f       	add	r16, r16
    14d4:	33 0b       	sbc	r19, r19
    14d6:	c2 17       	cp	r28, r18
    14d8:	d3 07       	cpc	r29, r19
    14da:	f1 f4       	brne	.+60     	; 0x1518 <chek_timer_alarms+0x94>
    14dc:	40 91 77 04 	lds	r20, 0x0477	; 0x800477 <timer+0x1>
    14e0:	50 e0       	ldi	r21, 0x00	; 0
    14e2:	21 2f       	mov	r18, r17
    14e4:	11 0f       	add	r17, r17
    14e6:	33 0b       	sbc	r19, r19
    14e8:	42 17       	cp	r20, r18
    14ea:	53 07       	cpc	r21, r19
    14ec:	a9 f4       	brne	.+42     	; 0x1518 <chek_timer_alarms+0x94>
    14ee:	20 91 78 04 	lds	r18, 0x0478	; 0x800478 <timer+0x2>
    14f2:	30 e0       	ldi	r19, 0x00	; 0
    14f4:	08 2e       	mov	r0, r24
    14f6:	00 0c       	add	r0, r0
    14f8:	99 0b       	sbc	r25, r25
    14fa:	28 17       	cp	r18, r24
    14fc:	39 07       	cpc	r19, r25
    14fe:	61 f4       	brne	.+24     	; 0x1518 <chek_timer_alarms+0x94>
    1500:	81 e0       	ldi	r24, 0x01	; 1
    1502:	80 93 74 04 	sts	0x0474, r24	; 0x800474 <alarm>
    1506:	85 e0       	ldi	r24, 0x05	; 5
    1508:	90 e0       	ldi	r25, 0x00	; 0
    150a:	0e 94 24 24 	call	0x4848	; 0x4848 <eeprom_read_byte>
    150e:	80 93 75 04 	sts	0x0475, r24	; 0x800475 <alarm+0x1>
    1512:	88 ed       	ldi	r24, 0xD8	; 216
    1514:	90 e4       	ldi	r25, 0x40	; 64
    1516:	31 c0       	rjmp	.+98     	; 0x157a <chek_timer_alarms+0xf6>
    1518:	89 e1       	ldi	r24, 0x19	; 25
    151a:	90 e0       	ldi	r25, 0x00	; 0
    151c:	0e 94 24 24 	call	0x4848	; 0x4848 <eeprom_read_byte>
    1520:	08 2f       	mov	r16, r24
    1522:	8a e1       	ldi	r24, 0x1A	; 26
    1524:	90 e0       	ldi	r25, 0x00	; 0
    1526:	0e 94 24 24 	call	0x4848	; 0x4848 <eeprom_read_byte>
    152a:	18 2f       	mov	r17, r24
    152c:	8b e1       	ldi	r24, 0x1B	; 27
    152e:	90 e0       	ldi	r25, 0x00	; 0
    1530:	0e 94 24 24 	call	0x4848	; 0x4848 <eeprom_read_byte>
    1534:	20 2f       	mov	r18, r16
    1536:	00 0f       	add	r16, r16
    1538:	33 0b       	sbc	r19, r19
    153a:	c2 17       	cp	r28, r18
    153c:	d3 07       	cpc	r29, r19
    153e:	19 f5       	brne	.+70     	; 0x1586 <chek_timer_alarms+0x102>
    1540:	40 91 77 04 	lds	r20, 0x0477	; 0x800477 <timer+0x1>
    1544:	50 e0       	ldi	r21, 0x00	; 0
    1546:	21 2f       	mov	r18, r17
    1548:	11 0f       	add	r17, r17
    154a:	33 0b       	sbc	r19, r19
    154c:	42 17       	cp	r20, r18
    154e:	53 07       	cpc	r21, r19
    1550:	d1 f4       	brne	.+52     	; 0x1586 <chek_timer_alarms+0x102>
    1552:	20 91 78 04 	lds	r18, 0x0478	; 0x800478 <timer+0x2>
    1556:	30 e0       	ldi	r19, 0x00	; 0
    1558:	08 2e       	mov	r0, r24
    155a:	00 0c       	add	r0, r0
    155c:	99 0b       	sbc	r25, r25
    155e:	28 17       	cp	r18, r24
    1560:	39 07       	cpc	r19, r25
    1562:	89 f4       	brne	.+34     	; 0x1586 <chek_timer_alarms+0x102>
    1564:	81 e0       	ldi	r24, 0x01	; 1
    1566:	80 93 74 04 	sts	0x0474, r24	; 0x800474 <alarm>
    156a:	85 e0       	ldi	r24, 0x05	; 5
    156c:	90 e0       	ldi	r25, 0x00	; 0
    156e:	0e 94 24 24 	call	0x4848	; 0x4848 <eeprom_read_byte>
    1572:	80 93 75 04 	sts	0x0475, r24	; 0x800475 <alarm+0x1>
    1576:	80 e6       	ldi	r24, 0x60	; 96
    1578:	92 e2       	ldi	r25, 0x22	; 34
    157a:	df 91       	pop	r29
    157c:	cf 91       	pop	r28
    157e:	1f 91       	pop	r17
    1580:	0f 91       	pop	r16
    1582:	0c 94 2c 01 	jmp	0x258	; 0x258 <Buzzer.part.7>
    1586:	df 91       	pop	r29
    1588:	cf 91       	pop	r28
    158a:	1f 91       	pop	r17
    158c:	0f 91       	pop	r16
    158e:	08 95       	ret

00001590 <update_score_display>:
    1590:	cf 93       	push	r28
    1592:	df 93       	push	r29
    1594:	00 d0       	rcall	.+0      	; 0x1596 <update_score_display+0x6>
    1596:	00 d0       	rcall	.+0      	; 0x1598 <update_score_display+0x8>
    1598:	cd b7       	in	r28, 0x3d	; 61
    159a:	de b7       	in	r29, 0x3e	; 62
    159c:	80 91 6f 04 	lds	r24, 0x046F	; 0x80046f <Score_home>
    15a0:	4a e0       	ldi	r20, 0x0A	; 10
    15a2:	be 01       	movw	r22, r28
    15a4:	6f 5f       	subi	r22, 0xFF	; 255
    15a6:	7f 4f       	sbci	r23, 0xFF	; 255
    15a8:	90 e0       	ldi	r25, 0x00	; 0
    15aa:	0e 94 bd 21 	call	0x437a	; 0x437a <__itoa_ncheck>
    15ae:	9a 81       	ldd	r25, Y+2	; 0x02
    15b0:	89 81       	ldd	r24, Y+1	; 0x01
    15b2:	91 11       	cpse	r25, r1
    15b4:	07 c0       	rjmp	.+14     	; 0x15c4 <update_score_display+0x34>
    15b6:	9d e0       	ldi	r25, 0x0D	; 13
    15b8:	90 93 83 04 	sts	0x0483, r25	; 0x800483 <display_out_buf+0x4>
    15bc:	8f 70       	andi	r24, 0x0F	; 15
    15be:	80 93 84 04 	sts	0x0484, r24	; 0x800484 <display_out_buf+0x5>
    15c2:	06 c0       	rjmp	.+12     	; 0x15d0 <update_score_display+0x40>
    15c4:	8f 70       	andi	r24, 0x0F	; 15
    15c6:	80 93 83 04 	sts	0x0483, r24	; 0x800483 <display_out_buf+0x4>
    15ca:	9f 70       	andi	r25, 0x0F	; 15
    15cc:	90 93 84 04 	sts	0x0484, r25	; 0x800484 <display_out_buf+0x5>
    15d0:	80 91 6e 04 	lds	r24, 0x046E	; 0x80046e <Score_guest>
    15d4:	4a e0       	ldi	r20, 0x0A	; 10
    15d6:	be 01       	movw	r22, r28
    15d8:	6f 5f       	subi	r22, 0xFF	; 255
    15da:	7f 4f       	sbci	r23, 0xFF	; 255
    15dc:	90 e0       	ldi	r25, 0x00	; 0
    15de:	0e 94 bd 21 	call	0x437a	; 0x437a <__itoa_ncheck>
    15e2:	89 81       	ldd	r24, Y+1	; 0x01
    15e4:	8f 70       	andi	r24, 0x0F	; 15
    15e6:	80 93 85 04 	sts	0x0485, r24	; 0x800485 <display_out_buf+0x6>
    15ea:	8a 81       	ldd	r24, Y+2	; 0x02
    15ec:	88 23       	and	r24, r24
    15ee:	11 f0       	breq	.+4      	; 0x15f4 <update_score_display+0x64>
    15f0:	8f 70       	andi	r24, 0x0F	; 15
    15f2:	01 c0       	rjmp	.+2      	; 0x15f6 <update_score_display+0x66>
    15f4:	8d e0       	ldi	r24, 0x0D	; 13
    15f6:	80 93 86 04 	sts	0x0486, r24	; 0x800486 <display_out_buf+0x7>
    15fa:	80 91 87 04 	lds	r24, 0x0487	; 0x800487 <display_out_buf+0x8>
    15fe:	8d 30       	cpi	r24, 0x0D	; 13
    1600:	31 f4       	brne	.+12     	; 0x160e <update_score_display+0x7e>
    1602:	10 92 87 04 	sts	0x0487, r1	; 0x800487 <display_out_buf+0x8>
    1606:	10 92 88 04 	sts	0x0488, r1	; 0x800488 <display_out_buf+0x9>
    160a:	10 92 89 04 	sts	0x0489, r1	; 0x800489 <display_out_buf+0xa>
    160e:	0f 90       	pop	r0
    1610:	0f 90       	pop	r0
    1612:	0f 90       	pop	r0
    1614:	0f 90       	pop	r0
    1616:	df 91       	pop	r29
    1618:	cf 91       	pop	r28
    161a:	08 95       	ret

0000161c <display_init>:
    161c:	10 92 1f 04 	sts	0x041F, r1	; 0x80041f <Menu_blink_on>
    1620:	10 92 1c 04 	sts	0x041C, r1	; 0x80041c <Change_timer_on>
    1624:	81 11       	cpse	r24, r1
    1626:	80 93 04 01 	sts	0x0104, r24	; 0x800104 <Program_display>
    162a:	10 92 21 04 	sts	0x0421, r1	; 0x800421 <Clock_blink_on>
    162e:	10 92 20 04 	sts	0x0420, r1	; 0x800420 <Timer_blink_on>
    1632:	84 e1       	ldi	r24, 0x14	; 20
    1634:	80 93 03 01 	sts	0x0103, r24	; 0x800103 <Program_display_time>
    1638:	80 91 04 01 	lds	r24, 0x0104	; 0x800104 <Program_display>
    163c:	84 30       	cpi	r24, 0x04	; 4
    163e:	18 f0       	brcs	.+6      	; 0x1646 <display_init+0x2a>
    1640:	81 e0       	ldi	r24, 0x01	; 1
    1642:	80 93 04 01 	sts	0x0104, r24	; 0x800104 <Program_display>
    1646:	8f ef       	ldi	r24, 0xFF	; 255
    1648:	9f e1       	ldi	r25, 0x1F	; 31
    164a:	90 93 26 04 	sts	0x0426, r25	; 0x800426 <Timer_devide+0x1>
    164e:	80 93 25 04 	sts	0x0425, r24	; 0x800425 <Timer_devide>
    1652:	0c 94 c8 0a 	jmp	0x1590	; 0x1590 <update_score_display>

00001656 <__vector_18>:
    1656:	1f 92       	push	r1
    1658:	0f 92       	push	r0
    165a:	0f b6       	in	r0, 0x3f	; 63
    165c:	0f 92       	push	r0
    165e:	11 24       	eor	r1, r1
    1660:	ff 92       	push	r15
    1662:	0f 93       	push	r16
    1664:	1f 93       	push	r17
    1666:	2f 93       	push	r18
    1668:	3f 93       	push	r19
    166a:	4f 93       	push	r20
    166c:	5f 93       	push	r21
    166e:	6f 93       	push	r22
    1670:	7f 93       	push	r23
    1672:	8f 93       	push	r24
    1674:	9f 93       	push	r25
    1676:	af 93       	push	r26
    1678:	bf 93       	push	r27
    167a:	cf 93       	push	r28
    167c:	df 93       	push	r29
    167e:	ef 93       	push	r30
    1680:	ff 93       	push	r31
    1682:	a8 95       	wdr
    1684:	00 91 29 04 	lds	r16, 0x0429	; 0x800429 <Timer_bright>
    1688:	10 91 2a 04 	lds	r17, 0x042A	; 0x80042a <Timer_bright+0x1>
    168c:	0f 5f       	subi	r16, 0xFF	; 255
    168e:	1f 4f       	sbci	r17, 0xFF	; 255
    1690:	10 93 2a 04 	sts	0x042A, r17	; 0x80042a <Timer_bright+0x1>
    1694:	00 93 29 04 	sts	0x0429, r16	; 0x800429 <Timer_bright>
    1698:	80 91 2d 04 	lds	r24, 0x042D	; 0x80042d <Timer_Butt_Minus>
    169c:	90 91 2e 04 	lds	r25, 0x042E	; 0x80042e <Timer_Butt_Minus+0x1>
    16a0:	00 97       	sbiw	r24, 0x00	; 0
    16a2:	29 f0       	breq	.+10     	; 0x16ae <__vector_18+0x58>
    16a4:	01 97       	sbiw	r24, 0x01	; 1
    16a6:	90 93 2e 04 	sts	0x042E, r25	; 0x80042e <Timer_Butt_Minus+0x1>
    16aa:	80 93 2d 04 	sts	0x042D, r24	; 0x80042d <Timer_Butt_Minus>
    16ae:	80 91 2b 04 	lds	r24, 0x042B	; 0x80042b <Timer_Butt_Start>
    16b2:	90 91 2c 04 	lds	r25, 0x042C	; 0x80042c <Timer_Butt_Start+0x1>
    16b6:	00 97       	sbiw	r24, 0x00	; 0
    16b8:	29 f0       	breq	.+10     	; 0x16c4 <__vector_18+0x6e>
    16ba:	01 97       	sbiw	r24, 0x01	; 1
    16bc:	90 93 2c 04 	sts	0x042C, r25	; 0x80042c <Timer_Butt_Start+0x1>
    16c0:	80 93 2b 04 	sts	0x042B, r24	; 0x80042b <Timer_Butt_Start>
    16c4:	8a e0       	ldi	r24, 0x0A	; 10
    16c6:	90 e0       	ldi	r25, 0x00	; 0
    16c8:	0e 94 24 24 	call	0x4848	; 0x4848 <eeprom_read_byte>
    16cc:	f8 2e       	mov	r15, r24
    16ce:	82 e0       	ldi	r24, 0x02	; 2
    16d0:	90 e0       	ldi	r25, 0x00	; 0
    16d2:	0e 94 24 24 	call	0x4848	; 0x4848 <eeprom_read_byte>
    16d6:	c8 2f       	mov	r28, r24
    16d8:	81 11       	cpse	r24, r1
    16da:	02 c0       	rjmp	.+4      	; 0x16e0 <__vector_18+0x8a>
    16dc:	c0 91 09 01 	lds	r28, 0x0109	; 0x800109 <sram_brigt>
    16e0:	03 30       	cpi	r16, 0x03	; 3
    16e2:	11 05       	cpc	r17, r1
    16e4:	88 f1       	brcs	.+98     	; 0x1748 <__vector_18+0xf2>
    16e6:	f1 10       	cpse	r15, r1
    16e8:	20 c0       	rjmp	.+64     	; 0x172a <__vector_18+0xd4>
    16ea:	10 92 2a 04 	sts	0x042A, r1	; 0x80042a <Timer_bright+0x1>
    16ee:	10 92 29 04 	sts	0x0429, r1	; 0x800429 <Timer_bright>
    16f2:	80 91 27 04 	lds	r24, 0x0427	; 0x800427 <Count_bright>
    16f6:	90 91 28 04 	lds	r25, 0x0428	; 0x800428 <Count_bright+0x1>
    16fa:	01 96       	adiw	r24, 0x01	; 1
    16fc:	90 93 28 04 	sts	0x0428, r25	; 0x800428 <Count_bright+0x1>
    1700:	80 93 27 04 	sts	0x0427, r24	; 0x800427 <Count_bright>
    1704:	2c 2f       	mov	r18, r28
    1706:	30 e0       	ldi	r19, 0x00	; 0
    1708:	28 17       	cp	r18, r24
    170a:	39 07       	cpc	r19, r25
    170c:	10 f0       	brcs	.+4      	; 0x1712 <__vector_18+0xbc>
    170e:	12 98       	cbi	0x02, 2	; 2
    1710:	01 c0       	rjmp	.+2      	; 0x1714 <__vector_18+0xbe>
    1712:	12 9a       	sbi	0x02, 2	; 2
    1714:	80 91 27 04 	lds	r24, 0x0427	; 0x800427 <Count_bright>
    1718:	90 91 28 04 	lds	r25, 0x0428	; 0x800428 <Count_bright+0x1>
    171c:	40 97       	sbiw	r24, 0x10	; 16
    171e:	a1 f4       	brne	.+40     	; 0x1748 <__vector_18+0xf2>
    1720:	10 92 28 04 	sts	0x0428, r1	; 0x800428 <Count_bright+0x1>
    1724:	10 92 27 04 	sts	0x0427, r1	; 0x800427 <Count_bright>
    1728:	0f c0       	rjmp	.+30     	; 0x1748 <__vector_18+0xf2>
    172a:	00 3f       	cpi	r16, 0xF0	; 240
    172c:	1f 4f       	sbci	r17, 0xFF	; 255
    172e:	60 f0       	brcs	.+24     	; 0x1748 <__vector_18+0xf2>
    1730:	88 e0       	ldi	r24, 0x08	; 8
    1732:	90 e0       	ldi	r25, 0x00	; 0
    1734:	0e 94 24 24 	call	0x4848	; 0x4848 <eeprom_read_byte>
    1738:	68 2f       	mov	r22, r24
    173a:	8c 2f       	mov	r24, r28
    173c:	0e 94 b2 01 	call	0x364	; 0x364 <TLC_config_byte>
    1740:	10 92 2a 04 	sts	0x042A, r1	; 0x80042a <Timer_bright+0x1>
    1744:	10 92 29 04 	sts	0x0429, r1	; 0x800429 <Timer_bright>
    1748:	80 91 25 04 	lds	r24, 0x0425	; 0x800425 <Timer_devide>
    174c:	90 91 26 04 	lds	r25, 0x0426	; 0x800426 <Timer_devide+0x1>
    1750:	01 96       	adiw	r24, 0x01	; 1
    1752:	90 93 26 04 	sts	0x0426, r25	; 0x800426 <Timer_devide+0x1>
    1756:	80 93 25 04 	sts	0x0425, r24	; 0x800425 <Timer_devide>
    175a:	80 3d       	cpi	r24, 0xD0	; 208
    175c:	97 40       	sbci	r25, 0x07	; 7
    175e:	08 f4       	brcc	.+2      	; 0x1762 <__vector_18+0x10c>
    1760:	e4 c0       	rjmp	.+456    	; 0x192a <__vector_18+0x2d4>
    1762:	9e b1       	in	r25, 0x0e	; 14
    1764:	84 e0       	ldi	r24, 0x04	; 4
    1766:	89 27       	eor	r24, r25
    1768:	8e b9       	out	0x0e, r24	; 14
    176a:	10 92 26 04 	sts	0x0426, r1	; 0x800426 <Timer_devide+0x1>
    176e:	10 92 25 04 	sts	0x0425, r1	; 0x800425 <Timer_devide>
    1772:	80 91 1b 04 	lds	r24, 0x041B	; 0x80041b <Speaker_delay_open>
    1776:	88 23       	and	r24, r24
    1778:	49 f0       	breq	.+18     	; 0x178c <__vector_18+0x136>
    177a:	81 50       	subi	r24, 0x01	; 1
    177c:	80 93 1b 04 	sts	0x041B, r24	; 0x80041b <Speaker_delay_open>
    1780:	81 11       	cpse	r24, r1
    1782:	04 c0       	rjmp	.+8      	; 0x178c <__vector_18+0x136>
    1784:	60 e0       	ldi	r22, 0x00	; 0
    1786:	70 e0       	ldi	r23, 0x00	; 0
    1788:	0e 94 59 09 	call	0x12b2	; 0x12b2 <Buzzer>
    178c:	0c 2f       	mov	r16, r28
    178e:	10 e0       	ldi	r17, 0x00	; 0
    1790:	83 e0       	ldi	r24, 0x03	; 3
    1792:	90 e0       	ldi	r25, 0x00	; 0
    1794:	0e 94 24 24 	call	0x4848	; 0x4848 <eeprom_read_byte>
    1798:	90 e0       	ldi	r25, 0x00	; 0
    179a:	98 01       	movw	r18, r16
    179c:	2f 5f       	subi	r18, 0xFF	; 255
    179e:	3f 4f       	sbci	r19, 0xFF	; 255
    17a0:	28 17       	cp	r18, r24
    17a2:	39 07       	cpc	r19, r25
    17a4:	14 f4       	brge	.+4      	; 0x17aa <__vector_18+0x154>
    17a6:	75 9a       	sbi	0x0e, 5	; 14
    17a8:	06 c0       	rjmp	.+12     	; 0x17b6 <__vector_18+0x160>
    17aa:	01 50       	subi	r16, 0x01	; 1
    17ac:	11 09       	sbc	r17, r1
    17ae:	80 17       	cp	r24, r16
    17b0:	91 07       	cpc	r25, r17
    17b2:	0c f4       	brge	.+2      	; 0x17b6 <__vector_18+0x160>
    17b4:	75 98       	cbi	0x0e, 5	; 14
    17b6:	80 91 30 04 	lds	r24, 0x0430	; 0x800430 <user_instruction>
    17ba:	81 11       	cpse	r24, r1
    17bc:	68 c0       	rjmp	.+208    	; 0x188e <__vector_18+0x238>
    17be:	20 91 03 01 	lds	r18, 0x0103	; 0x800103 <Program_display_time>
    17c2:	d1 e0       	ldi	r29, 0x01	; 1
    17c4:	d2 0f       	add	r29, r18
    17c6:	d0 93 03 01 	sts	0x0103, r29	; 0x800103 <Program_display_time>
    17ca:	80 e0       	ldi	r24, 0x00	; 0
    17cc:	90 e0       	ldi	r25, 0x00	; 0
    17ce:	0e 94 24 24 	call	0x4848	; 0x4848 <eeprom_read_byte>
    17d2:	18 2f       	mov	r17, r24
    17d4:	81 e0       	ldi	r24, 0x01	; 1
    17d6:	90 e0       	ldi	r25, 0x00	; 0
    17d8:	0e 94 24 24 	call	0x4848	; 0x4848 <eeprom_read_byte>
    17dc:	8f 70       	andi	r24, 0x0F	; 15
    17de:	8a 30       	cpi	r24, 0x0A	; 10
    17e0:	0c f0       	brlt	.+2      	; 0x17e4 <__vector_18+0x18e>
    17e2:	89 e0       	ldi	r24, 0x09	; 9
    17e4:	2d 2f       	mov	r18, r29
    17e6:	30 e0       	ldi	r19, 0x00	; 0
    17e8:	08 2e       	mov	r0, r24
    17ea:	00 0c       	add	r0, r0
    17ec:	99 0b       	sbc	r25, r25
    17ee:	88 0f       	add	r24, r24
    17f0:	99 1f       	adc	r25, r25
    17f2:	82 17       	cp	r24, r18
    17f4:	93 07       	cpc	r25, r19
    17f6:	b4 f5       	brge	.+108    	; 0x1864 <__vector_18+0x20e>
    17f8:	80 91 04 01 	lds	r24, 0x0104	; 0x800104 <Program_display>
    17fc:	81 30       	cpi	r24, 0x01	; 1
    17fe:	31 f4       	brne	.+12     	; 0x180c <__vector_18+0x1b6>
    1800:	10 ff       	sbrs	r17, 0
    1802:	2a c0       	rjmp	.+84     	; 0x1858 <__vector_18+0x202>
    1804:	80 93 21 04 	sts	0x0421, r24	; 0x800421 <Clock_blink_on>
    1808:	82 e0       	ldi	r24, 0x02	; 2
    180a:	09 c0       	rjmp	.+18     	; 0x181e <__vector_18+0x1c8>
    180c:	82 30       	cpi	r24, 0x02	; 2
    180e:	61 f4       	brne	.+24     	; 0x1828 <__vector_18+0x1d2>
    1810:	11 ff       	sbrs	r17, 1
    1812:	22 c0       	rjmp	.+68     	; 0x1858 <__vector_18+0x202>
    1814:	10 92 21 04 	sts	0x0421, r1	; 0x800421 <Clock_blink_on>
    1818:	0e 94 ff 07 	call	0xffe	; 0xffe <display_Date>
    181c:	83 e0       	ldi	r24, 0x03	; 3
    181e:	80 93 04 01 	sts	0x0104, r24	; 0x800104 <Program_display>
    1822:	10 92 03 01 	sts	0x0103, r1	; 0x800103 <Program_display_time>
    1826:	1e c0       	rjmp	.+60     	; 0x1864 <__vector_18+0x20e>
    1828:	83 30       	cpi	r24, 0x03	; 3
    182a:	b1 f4       	brne	.+44     	; 0x1858 <__vector_18+0x202>
    182c:	12 ff       	sbrs	r17, 2
    182e:	14 c0       	rjmp	.+40     	; 0x1858 <__vector_18+0x202>
    1830:	10 92 21 04 	sts	0x0421, r1	; 0x800421 <Clock_blink_on>
    1834:	ce 30       	cpi	r28, 0x0E	; 14
    1836:	20 f4       	brcc	.+8      	; 0x1840 <__vector_18+0x1ea>
    1838:	f1 10       	cpse	r15, r1
    183a:	02 c0       	rjmp	.+4      	; 0x1840 <__vector_18+0x1ea>
    183c:	12 9a       	sbi	0x02, 2	; 2
    183e:	01 c0       	rjmp	.+2      	; 0x1842 <__vector_18+0x1ec>
    1840:	12 98       	cbi	0x02, 2	; 2
    1842:	0e 94 5e 08 	call	0x10bc	; 0x10bc <display_temperature>
    1846:	12 98       	cbi	0x02, 2	; 2
    1848:	81 e0       	ldi	r24, 0x01	; 1
    184a:	80 93 04 01 	sts	0x0104, r24	; 0x800104 <Program_display>
    184e:	10 92 03 01 	sts	0x0103, r1	; 0x800103 <Program_display_time>
    1852:	10 92 22 04 	sts	0x0422, r1	; 0x800422 <Clock_blink>
    1856:	06 c0       	rjmp	.+12     	; 0x1864 <__vector_18+0x20e>
    1858:	8f 5f       	subi	r24, 0xFF	; 255
    185a:	80 93 04 01 	sts	0x0104, r24	; 0x800104 <Program_display>
    185e:	80 e0       	ldi	r24, 0x00	; 0
    1860:	0e 94 0e 0b 	call	0x161c	; 0x161c <display_init>
    1864:	80 91 21 04 	lds	r24, 0x0421	; 0x800421 <Clock_blink_on>
    1868:	88 23       	and	r24, r24
    186a:	09 f4       	brne	.+2      	; 0x186e <__vector_18+0x218>
    186c:	5e c0       	rjmp	.+188    	; 0x192a <__vector_18+0x2d4>
    186e:	87 e0       	ldi	r24, 0x07	; 7
    1870:	90 e0       	ldi	r25, 0x00	; 0
    1872:	0e 94 24 24 	call	0x4848	; 0x4848 <eeprom_read_byte>
    1876:	88 23       	and	r24, r24
    1878:	21 f0       	breq	.+8      	; 0x1882 <__vector_18+0x22c>
    187a:	80 91 22 04 	lds	r24, 0x0422	; 0x800422 <Clock_blink>
    187e:	80 58       	subi	r24, 0x80	; 128
    1880:	01 c0       	rjmp	.+2      	; 0x1884 <__vector_18+0x22e>
    1882:	80 e8       	ldi	r24, 0x80	; 128
    1884:	80 93 22 04 	sts	0x0422, r24	; 0x800422 <Clock_blink>
    1888:	0e 94 bb 07 	call	0xf76	; 0xf76 <display_Clock>
    188c:	4e c0       	rjmp	.+156    	; 0x192a <__vector_18+0x2d4>
    188e:	80 91 1f 04 	lds	r24, 0x041F	; 0x80041f <Menu_blink_on>
    1892:	88 23       	and	r24, r24
    1894:	09 f4       	brne	.+2      	; 0x1898 <__vector_18+0x242>
    1896:	3e c0       	rjmp	.+124    	; 0x1914 <__vector_18+0x2be>
    1898:	80 91 22 04 	lds	r24, 0x0422	; 0x800422 <Clock_blink>
    189c:	80 58       	subi	r24, 0x80	; 128
    189e:	80 93 22 04 	sts	0x0422, r24	; 0x800422 <Clock_blink>
    18a2:	e0 91 d4 04 	lds	r30, 0x04D4	; 0x8004d4 <cursor>
    18a6:	88 23       	and	r24, r24
    18a8:	f1 f0       	breq	.+60     	; 0x18e6 <__vector_18+0x290>
    18aa:	80 91 31 04 	lds	r24, 0x0431	; 0x800431 <shift>
    18ae:	0e 2e       	mov	r0, r30
    18b0:	00 0c       	add	r0, r0
    18b2:	ff 0b       	sbc	r31, r31
    18b4:	e8 1b       	sub	r30, r24
    18b6:	f1 09       	sbc	r31, r1
    18b8:	87 fd       	sbrc	r24, 7
    18ba:	f3 95       	inc	r31
    18bc:	e1 58       	subi	r30, 0x81	; 129
    18be:	fb 4f       	sbci	r31, 0xFB	; 251
    18c0:	80 81       	ld	r24, Z
    18c2:	80 78       	andi	r24, 0x80	; 128
    18c4:	80 83       	st	Z, r24
    18c6:	e0 91 d4 04 	lds	r30, 0x04D4	; 0x8004d4 <cursor>
    18ca:	80 91 31 04 	lds	r24, 0x0431	; 0x800431 <shift>
    18ce:	0e 2e       	mov	r0, r30
    18d0:	00 0c       	add	r0, r0
    18d2:	ff 0b       	sbc	r31, r31
    18d4:	e8 1b       	sub	r30, r24
    18d6:	f1 09       	sbc	r31, r1
    18d8:	87 fd       	sbrc	r24, 7
    18da:	f3 95       	inc	r31
    18dc:	e1 58       	subi	r30, 0x81	; 129
    18de:	fb 4f       	sbci	r31, 0xFB	; 251
    18e0:	80 81       	ld	r24, Z
    18e2:	8d 60       	ori	r24, 0x0D	; 13
    18e4:	13 c0       	rjmp	.+38     	; 0x190c <__vector_18+0x2b6>
    18e6:	80 91 31 04 	lds	r24, 0x0431	; 0x800431 <shift>
    18ea:	a0 91 d4 04 	lds	r26, 0x04D4	; 0x8004d4 <cursor>
    18ee:	0e 2e       	mov	r0, r30
    18f0:	00 0c       	add	r0, r0
    18f2:	ff 0b       	sbc	r31, r31
    18f4:	e8 1b       	sub	r30, r24
    18f6:	f1 09       	sbc	r31, r1
    18f8:	87 fd       	sbrc	r24, 7
    18fa:	f3 95       	inc	r31
    18fc:	e1 58       	subi	r30, 0x81	; 129
    18fe:	fb 4f       	sbci	r31, 0xFB	; 251
    1900:	0a 2e       	mov	r0, r26
    1902:	00 0c       	add	r0, r0
    1904:	bb 0b       	sbc	r27, r27
    1906:	a7 58       	subi	r26, 0x87	; 135
    1908:	bb 4f       	sbci	r27, 0xFB	; 251
    190a:	8c 91       	ld	r24, X
    190c:	80 83       	st	Z, r24
    190e:	0e 94 84 07 	call	0xf08	; 0xf08 <Display_Out>
    1912:	0b c0       	rjmp	.+22     	; 0x192a <__vector_18+0x2d4>
    1914:	80 91 20 04 	lds	r24, 0x0420	; 0x800420 <Timer_blink_on>
    1918:	88 23       	and	r24, r24
    191a:	39 f0       	breq	.+14     	; 0x192a <__vector_18+0x2d4>
    191c:	80 91 22 04 	lds	r24, 0x0422	; 0x800422 <Clock_blink>
    1920:	80 58       	subi	r24, 0x80	; 128
    1922:	80 93 22 04 	sts	0x0422, r24	; 0x800422 <Clock_blink>
    1926:	0e 94 d2 08 	call	0x11a4	; 0x11a4 <timer_display>
    192a:	82 e0       	ldi	r24, 0x02	; 2
    192c:	90 e0       	ldi	r25, 0x00	; 0
    192e:	0e 94 24 24 	call	0x4848	; 0x4848 <eeprom_read_byte>
    1932:	81 11       	cpse	r24, r1
    1934:	14 c0       	rjmp	.+40     	; 0x195e <__vector_18+0x308>
    1936:	80 91 23 04 	lds	r24, 0x0423	; 0x800423 <Timer_devide_photo>
    193a:	90 91 24 04 	lds	r25, 0x0424	; 0x800424 <Timer_devide_photo+0x1>
    193e:	01 96       	adiw	r24, 0x01	; 1
    1940:	80 3e       	cpi	r24, 0xE0	; 224
    1942:	2e e2       	ldi	r18, 0x2E	; 46
    1944:	92 07       	cpc	r25, r18
    1946:	28 f4       	brcc	.+10     	; 0x1952 <__vector_18+0x2fc>
    1948:	90 93 24 04 	sts	0x0424, r25	; 0x800424 <Timer_devide_photo+0x1>
    194c:	80 93 23 04 	sts	0x0423, r24	; 0x800423 <Timer_devide_photo>
    1950:	06 c0       	rjmp	.+12     	; 0x195e <__vector_18+0x308>
    1952:	10 92 24 04 	sts	0x0424, r1	; 0x800424 <Timer_devide_photo+0x1>
    1956:	10 92 23 04 	sts	0x0423, r1	; 0x800423 <Timer_devide_photo>
    195a:	0e 94 e6 09 	call	0x13cc	; 0x13cc <photo_sample>
    195e:	ff 91       	pop	r31
    1960:	ef 91       	pop	r30
    1962:	df 91       	pop	r29
    1964:	cf 91       	pop	r28
    1966:	bf 91       	pop	r27
    1968:	af 91       	pop	r26
    196a:	9f 91       	pop	r25
    196c:	8f 91       	pop	r24
    196e:	7f 91       	pop	r23
    1970:	6f 91       	pop	r22
    1972:	5f 91       	pop	r21
    1974:	4f 91       	pop	r20
    1976:	3f 91       	pop	r19
    1978:	2f 91       	pop	r18
    197a:	1f 91       	pop	r17
    197c:	0f 91       	pop	r16
    197e:	ff 90       	pop	r15
    1980:	0f 90       	pop	r0
    1982:	0f be       	out	0x3f, r0	; 63
    1984:	0f 90       	pop	r0
    1986:	1f 90       	pop	r1
    1988:	18 95       	reti

0000198a <__vector_11>:
    198a:	1f 92       	push	r1
    198c:	0f 92       	push	r0
    198e:	0f b6       	in	r0, 0x3f	; 63
    1990:	0f 92       	push	r0
    1992:	11 24       	eor	r1, r1
    1994:	1f 93       	push	r17
    1996:	2f 93       	push	r18
    1998:	3f 93       	push	r19
    199a:	4f 93       	push	r20
    199c:	5f 93       	push	r21
    199e:	6f 93       	push	r22
    19a0:	7f 93       	push	r23
    19a2:	8f 93       	push	r24
    19a4:	9f 93       	push	r25
    19a6:	af 93       	push	r26
    19a8:	bf 93       	push	r27
    19aa:	cf 93       	push	r28
    19ac:	df 93       	push	r29
    19ae:	ef 93       	push	r30
    19b0:	ff 93       	push	r31
    19b2:	10 91 76 04 	lds	r17, 0x0476	; 0x800476 <timer>
    19b6:	d0 91 77 04 	lds	r29, 0x0477	; 0x800477 <timer+0x1>
    19ba:	80 91 78 04 	lds	r24, 0x0478	; 0x800478 <timer+0x2>
    19be:	20 91 30 04 	lds	r18, 0x0430	; 0x800430 <user_instruction>
    19c2:	90 91 30 04 	lds	r25, 0x0430	; 0x800430 <user_instruction>
    19c6:	21 34       	cpi	r18, 0x41	; 65
    19c8:	11 f0       	breq	.+4      	; 0x19ce <__vector_11+0x44>
    19ca:	92 34       	cpi	r25, 0x42	; 66
    19cc:	e1 f4       	brne	.+56     	; 0x1a06 <__vector_11+0x7c>
    19ce:	cf ef       	ldi	r28, 0xFF	; 255
    19d0:	c8 0f       	add	r28, r24
    19d2:	ca 35       	cpi	r28, 0x5A	; 90
    19d4:	90 f0       	brcs	.+36     	; 0x19fa <__vector_11+0x70>
    19d6:	8f ef       	ldi	r24, 0xFF	; 255
    19d8:	8d 0f       	add	r24, r29
    19da:	8a 35       	cpi	r24, 0x5A	; 90
    19dc:	40 f0       	brcs	.+16     	; 0x19ee <__vector_11+0x64>
    19de:	8f ef       	ldi	r24, 0xFF	; 255
    19e0:	81 0f       	add	r24, r17
    19e2:	98 2f       	mov	r25, r24
    19e4:	9f 70       	andi	r25, 0x0F	; 15
    19e6:	9a 30       	cpi	r25, 0x0A	; 10
    19e8:	98 f1       	brcs	.+102    	; 0x1a50 <__vector_11+0xc6>
    19ea:	17 50       	subi	r17, 0x07	; 7
    19ec:	32 c0       	rjmp	.+100    	; 0x1a52 <__vector_11+0xc8>
    19ee:	98 2f       	mov	r25, r24
    19f0:	9f 70       	andi	r25, 0x0F	; 15
    19f2:	9a 30       	cpi	r25, 0x0A	; 10
    19f4:	88 f1       	brcs	.+98     	; 0x1a58 <__vector_11+0xce>
    19f6:	d7 50       	subi	r29, 0x07	; 7
    19f8:	30 c0       	rjmp	.+96     	; 0x1a5a <__vector_11+0xd0>
    19fa:	9c 2f       	mov	r25, r28
    19fc:	9f 70       	andi	r25, 0x0F	; 15
    19fe:	9a 30       	cpi	r25, 0x0A	; 10
    1a00:	78 f1       	brcs	.+94     	; 0x1a60 <__vector_11+0xd6>
    1a02:	c9 ef       	ldi	r28, 0xF9	; 249
    1a04:	23 c0       	rjmp	.+70     	; 0x1a4c <__vector_11+0xc2>
    1a06:	c1 e0       	ldi	r28, 0x01	; 1
    1a08:	c8 0f       	add	r28, r24
    1a0a:	9c 2f       	mov	r25, r28
    1a0c:	9f 70       	andi	r25, 0x0F	; 15
    1a0e:	9a 30       	cpi	r25, 0x0A	; 10
    1a10:	38 f1       	brcs	.+78     	; 0x1a60 <__vector_11+0xd6>
    1a12:	ca 35       	cpi	r28, 0x5A	; 90
    1a14:	d0 f0       	brcs	.+52     	; 0x1a4a <__vector_11+0xc0>
    1a16:	81 e0       	ldi	r24, 0x01	; 1
    1a18:	8d 0f       	add	r24, r29
    1a1a:	98 2f       	mov	r25, r24
    1a1c:	9f 70       	andi	r25, 0x0F	; 15
    1a1e:	9a 30       	cpi	r25, 0x0A	; 10
    1a20:	20 f0       	brcs	.+8      	; 0x1a2a <__vector_11+0xa0>
    1a22:	8a 39       	cpi	r24, 0x9A	; 154
    1a24:	20 f4       	brcc	.+8      	; 0x1a2e <__vector_11+0xa4>
    1a26:	d9 5f       	subi	r29, 0xF9	; 249
    1a28:	03 c0       	rjmp	.+6      	; 0x1a30 <__vector_11+0xa6>
    1a2a:	d8 2f       	mov	r29, r24
    1a2c:	01 c0       	rjmp	.+2      	; 0x1a30 <__vector_11+0xa6>
    1a2e:	d0 e0       	ldi	r29, 0x00	; 0
    1a30:	8f e0       	ldi	r24, 0x0F	; 15
    1a32:	90 e0       	ldi	r25, 0x00	; 0
    1a34:	0e 94 24 24 	call	0x4848	; 0x4848 <eeprom_read_byte>
    1a38:	81 30       	cpi	r24, 0x01	; 1
    1a3a:	89 f4       	brne	.+34     	; 0x1a5e <__vector_11+0xd4>
    1a3c:	d5 34       	cpi	r29, 0x45	; 69
    1a3e:	11 f0       	breq	.+4      	; 0x1a44 <__vector_11+0xba>
    1a40:	d0 39       	cpi	r29, 0x90	; 144
    1a42:	69 f4       	brne	.+26     	; 0x1a5e <__vector_11+0xd4>
    1a44:	10 92 b1 00 	sts	0x00B1, r1	; 0x8000b1 <__TEXT_REGION_LENGTH__+0x7f80b1>
    1a48:	0a c0       	rjmp	.+20     	; 0x1a5e <__vector_11+0xd4>
    1a4a:	c7 e0       	ldi	r28, 0x07	; 7
    1a4c:	c8 0f       	add	r28, r24
    1a4e:	08 c0       	rjmp	.+16     	; 0x1a60 <__vector_11+0xd6>
    1a50:	18 2f       	mov	r17, r24
    1a52:	c9 e5       	ldi	r28, 0x59	; 89
    1a54:	d9 e5       	ldi	r29, 0x59	; 89
    1a56:	04 c0       	rjmp	.+8      	; 0x1a60 <__vector_11+0xd6>
    1a58:	d8 2f       	mov	r29, r24
    1a5a:	c9 e5       	ldi	r28, 0x59	; 89
    1a5c:	01 c0       	rjmp	.+2      	; 0x1a60 <__vector_11+0xd6>
    1a5e:	c0 e0       	ldi	r28, 0x00	; 0
    1a60:	10 93 76 04 	sts	0x0476, r17	; 0x800476 <timer>
    1a64:	d0 93 77 04 	sts	0x0477, r29	; 0x800477 <timer+0x1>
    1a68:	c0 93 78 04 	sts	0x0478, r28	; 0x800478 <timer+0x2>
    1a6c:	0e 94 d2 08 	call	0x11a4	; 0x11a4 <timer_display>
    1a70:	80 91 30 04 	lds	r24, 0x0430	; 0x800430 <user_instruction>
    1a74:	81 34       	cpi	r24, 0x41	; 65
    1a76:	29 f0       	breq	.+10     	; 0x1a82 <__vector_11+0xf8>
    1a78:	80 91 30 04 	lds	r24, 0x0430	; 0x800430 <user_instruction>
    1a7c:	82 34       	cpi	r24, 0x42	; 66
    1a7e:	09 f0       	breq	.+2      	; 0x1a82 <__vector_11+0xf8>
    1a80:	44 c0       	rjmp	.+136    	; 0x1b0a <__vector_11+0x180>
    1a82:	11 11       	cpse	r17, r1
    1a84:	42 c0       	rjmp	.+132    	; 0x1b0a <__vector_11+0x180>
    1a86:	d1 11       	cpse	r29, r1
    1a88:	40 c0       	rjmp	.+128    	; 0x1b0a <__vector_11+0x180>
    1a8a:	c1 11       	cpse	r28, r1
    1a8c:	3e c0       	rjmp	.+124    	; 0x1b0a <__vector_11+0x180>
    1a8e:	10 92 b1 00 	sts	0x00B1, r1	; 0x8000b1 <__TEXT_REGION_LENGTH__+0x7f80b1>
    1a92:	d3 e0       	ldi	r29, 0x03	; 3
    1a94:	cd e0       	ldi	r28, 0x0D	; 13
    1a96:	80 ea       	ldi	r24, 0xA0	; 160
    1a98:	9f e0       	ldi	r25, 0x0F	; 15
    1a9a:	0e 94 2c 01 	call	0x258	; 0x258 <Buzzer.part.7>
    1a9e:	a8 95       	wdr
    1aa0:	2f ef       	ldi	r18, 0xFF	; 255
    1aa2:	89 e6       	ldi	r24, 0x69	; 105
    1aa4:	98 e1       	ldi	r25, 0x18	; 24
    1aa6:	21 50       	subi	r18, 0x01	; 1
    1aa8:	80 40       	sbci	r24, 0x00	; 0
    1aaa:	90 40       	sbci	r25, 0x00	; 0
    1aac:	e1 f7       	brne	.-8      	; 0x1aa6 <__vector_11+0x11c>
    1aae:	00 c0       	rjmp	.+0      	; 0x1ab0 <__vector_11+0x126>
    1ab0:	00 00       	nop
    1ab2:	60 ea       	ldi	r22, 0xA0	; 160
    1ab4:	7f e0       	ldi	r23, 0x0F	; 15
    1ab6:	80 e0       	ldi	r24, 0x00	; 0
    1ab8:	0e 94 59 09 	call	0x12b2	; 0x12b2 <Buzzer>
    1abc:	c0 93 7f 04 	sts	0x047F, r28	; 0x80047f <display_out_buf>
    1ac0:	c0 93 80 04 	sts	0x0480, r28	; 0x800480 <display_out_buf+0x1>
    1ac4:	c0 93 81 04 	sts	0x0481, r28	; 0x800481 <display_out_buf+0x2>
    1ac8:	c0 93 82 04 	sts	0x0482, r28	; 0x800482 <display_out_buf+0x3>
    1acc:	0e 94 84 07 	call	0xf08	; 0xf08 <Display_Out>
    1ad0:	a8 95       	wdr
    1ad2:	2f ef       	ldi	r18, 0xFF	; 255
    1ad4:	89 e6       	ldi	r24, 0x69	; 105
    1ad6:	98 e1       	ldi	r25, 0x18	; 24
    1ad8:	21 50       	subi	r18, 0x01	; 1
    1ada:	80 40       	sbci	r24, 0x00	; 0
    1adc:	90 40       	sbci	r25, 0x00	; 0
    1ade:	e1 f7       	brne	.-8      	; 0x1ad8 <__vector_11+0x14e>
    1ae0:	00 c0       	rjmp	.+0      	; 0x1ae2 <__vector_11+0x158>
    1ae2:	00 00       	nop
    1ae4:	0e 94 d2 08 	call	0x11a4	; 0x11a4 <timer_display>
    1ae8:	d1 50       	subi	r29, 0x01	; 1
    1aea:	a9 f6       	brne	.-86     	; 0x1a96 <__vector_11+0x10c>
    1aec:	a8 95       	wdr
    1aee:	2f ef       	ldi	r18, 0xFF	; 255
    1af0:	8d e3       	ldi	r24, 0x3D	; 61
    1af2:	99 e4       	ldi	r25, 0x49	; 73
    1af4:	21 50       	subi	r18, 0x01	; 1
    1af6:	80 40       	sbci	r24, 0x00	; 0
    1af8:	90 40       	sbci	r25, 0x00	; 0
    1afa:	e1 f7       	brne	.-8      	; 0x1af4 <__vector_11+0x16a>
    1afc:	00 c0       	rjmp	.+0      	; 0x1afe <__vector_11+0x174>
    1afe:	00 00       	nop
    1b00:	10 92 30 04 	sts	0x0430, r1	; 0x800430 <user_instruction>
    1b04:	81 e0       	ldi	r24, 0x01	; 1
    1b06:	0e 94 0e 0b 	call	0x161c	; 0x161c <display_init>
    1b0a:	0e 94 42 0a 	call	0x1484	; 0x1484 <chek_timer_alarms>
    1b0e:	ff 91       	pop	r31
    1b10:	ef 91       	pop	r30
    1b12:	df 91       	pop	r29
    1b14:	cf 91       	pop	r28
    1b16:	bf 91       	pop	r27
    1b18:	af 91       	pop	r26
    1b1a:	9f 91       	pop	r25
    1b1c:	8f 91       	pop	r24
    1b1e:	7f 91       	pop	r23
    1b20:	6f 91       	pop	r22
    1b22:	5f 91       	pop	r21
    1b24:	4f 91       	pop	r20
    1b26:	3f 91       	pop	r19
    1b28:	2f 91       	pop	r18
    1b2a:	1f 91       	pop	r17
    1b2c:	0f 90       	pop	r0
    1b2e:	0f be       	out	0x3f, r0	; 63
    1b30:	0f 90       	pop	r0
    1b32:	1f 90       	pop	r1
    1b34:	18 95       	reti

00001b36 <F_menu>:
    1b36:	5f 92       	push	r5
    1b38:	6f 92       	push	r6
    1b3a:	7f 92       	push	r7
    1b3c:	8f 92       	push	r8
    1b3e:	9f 92       	push	r9
    1b40:	af 92       	push	r10
    1b42:	bf 92       	push	r11
    1b44:	cf 92       	push	r12
    1b46:	df 92       	push	r13
    1b48:	ef 92       	push	r14
    1b4a:	ff 92       	push	r15
    1b4c:	0f 93       	push	r16
    1b4e:	1f 93       	push	r17
    1b50:	cf 93       	push	r28
    1b52:	df 93       	push	r29
    1b54:	cd b7       	in	r28, 0x3d	; 61
    1b56:	de b7       	in	r29, 0x3e	; 62
    1b58:	28 97       	sbiw	r28, 0x08	; 8
    1b5a:	0f b6       	in	r0, 0x3f	; 63
    1b5c:	f8 94       	cli
    1b5e:	de bf       	out	0x3e, r29	; 62
    1b60:	0f be       	out	0x3f, r0	; 63
    1b62:	cd bf       	out	0x3d, r28	; 61
    1b64:	40 e0       	ldi	r20, 0x00	; 0
    1b66:	c4 2e       	mov	r12, r20
    1b68:	40 e0       	ldi	r20, 0x00	; 0
    1b6a:	d4 2e       	mov	r13, r20
    1b6c:	8e 01       	movw	r16, r28
    1b6e:	0f 5f       	subi	r16, 0xFF	; 255
    1b70:	1f 4f       	sbci	r17, 0xFF	; 255
    1b72:	5e ef       	ldi	r21, 0xFE	; 254
    1b74:	f5 2e       	mov	r15, r21
    1b76:	69 e0       	ldi	r22, 0x09	; 9
    1b78:	e6 2e       	mov	r14, r22
    1b7a:	70 e1       	ldi	r23, 0x10	; 16
    1b7c:	b7 2e       	mov	r11, r23
    1b7e:	c6 01       	movw	r24, r12
    1b80:	0e 94 24 24 	call	0x4848	; 0x4848 <eeprom_read_byte>
    1b84:	91 e0       	ldi	r25, 0x01	; 1
    1b86:	9f 15       	cp	r25, r15
    1b88:	40 f0       	brcs	.+16     	; 0x1b9a <F_menu+0x64>
    1b8a:	81 31       	cpi	r24, 0x11	; 17
    1b8c:	18 f4       	brcc	.+6      	; 0x1b94 <F_menu+0x5e>
    1b8e:	f8 01       	movw	r30, r16
    1b90:	80 83       	st	Z, r24
    1b92:	07 c0       	rjmp	.+14     	; 0x1ba2 <F_menu+0x6c>
    1b94:	f8 01       	movw	r30, r16
    1b96:	b0 82       	st	Z, r11
    1b98:	04 c0       	rjmp	.+8      	; 0x1ba2 <F_menu+0x6c>
    1b9a:	8a 30       	cpi	r24, 0x0A	; 10
    1b9c:	c0 f3       	brcs	.-16     	; 0x1b8e <F_menu+0x58>
    1b9e:	f8 01       	movw	r30, r16
    1ba0:	e0 82       	st	Z, r14
    1ba2:	0f 5f       	subi	r16, 0xFF	; 255
    1ba4:	1f 4f       	sbci	r17, 0xFF	; 255
    1ba6:	ff ef       	ldi	r31, 0xFF	; 255
    1ba8:	cf 1a       	sub	r12, r31
    1baa:	df 0a       	sbc	r13, r31
    1bac:	f3 94       	inc	r15
    1bae:	86 e0       	ldi	r24, 0x06	; 6
    1bb0:	f8 12       	cpse	r15, r24
    1bb2:	e5 cf       	rjmp	.-54     	; 0x1b7e <F_menu+0x48>
    1bb4:	81 e1       	ldi	r24, 0x11	; 17
    1bb6:	80 93 79 04 	sts	0x0479, r24	; 0x800479 <set_clock_buf>
    1bba:	81 e0       	ldi	r24, 0x01	; 1
    1bbc:	80 93 7a 04 	sts	0x047A, r24	; 0x80047a <set_clock_buf+0x1>
    1bc0:	8d e0       	ldi	r24, 0x0D	; 13
    1bc2:	80 93 7b 04 	sts	0x047B, r24	; 0x80047b <set_clock_buf+0x2>
    1bc6:	89 81       	ldd	r24, Y+1	; 0x01
    1bc8:	8a 30       	cpi	r24, 0x0A	; 10
    1bca:	08 f0       	brcs	.+2      	; 0x1bce <F_menu+0x98>
    1bcc:	87 e0       	ldi	r24, 0x07	; 7
    1bce:	80 93 7c 04 	sts	0x047C, r24	; 0x80047c <set_clock_buf+0x3>
    1bd2:	83 e0       	ldi	r24, 0x03	; 3
    1bd4:	80 93 d4 04 	sts	0x04D4, r24	; 0x8004d4 <cursor>
    1bd8:	10 92 31 04 	sts	0x0431, r1	; 0x800431 <shift>
    1bdc:	81 e0       	ldi	r24, 0x01	; 1
    1bde:	80 93 1f 04 	sts	0x041F, r24	; 0x80041f <Menu_blink_on>
    1be2:	0e 94 62 09 	call	0x12c4	; 0x12c4 <Display_set_menu>
    1be6:	86 e6       	ldi	r24, 0x66	; 102
    1be8:	80 93 30 04 	sts	0x0430, r24	; 0x800430 <user_instruction>
    1bec:	10 e0       	ldi	r17, 0x00	; 0
    1bee:	6e 01       	movw	r12, r28
    1bf0:	99 e0       	ldi	r25, 0x09	; 9
    1bf2:	c9 0e       	add	r12, r25
    1bf4:	d1 1c       	adc	r13, r1
    1bf6:	90 ef       	ldi	r25, 0xF0	; 240
    1bf8:	a9 2e       	mov	r10, r25
    1bfa:	bb 24       	eor	r11, r11
    1bfc:	ba 94       	dec	r11
    1bfe:	ee 24       	eor	r14, r14
    1c00:	ea 94       	dec	r14
    1c02:	fe 2c       	mov	r15, r14
    1c04:	0a e0       	ldi	r16, 0x0A	; 10
    1c06:	33 e0       	ldi	r19, 0x03	; 3
    1c08:	53 2e       	mov	r5, r19
    1c0a:	80 91 30 04 	lds	r24, 0x0430	; 0x800430 <user_instruction>
    1c0e:	88 23       	and	r24, r24
    1c10:	09 f4       	brne	.+2      	; 0x1c14 <F_menu+0xde>
    1c12:	fd c0       	rjmp	.+506    	; 0x1e0e <F_menu+0x2d8>
    1c14:	80 91 05 01 	lds	r24, 0x0105	; 0x800105 <key>
    1c18:	90 91 06 01 	lds	r25, 0x0106	; 0x800106 <key+0x1>
    1c1c:	97 fd       	sbrc	r25, 7
    1c1e:	4a c0       	rjmp	.+148    	; 0x1cb4 <F_menu+0x17e>
    1c20:	80 91 05 01 	lds	r24, 0x0105	; 0x800105 <key>
    1c24:	90 91 06 01 	lds	r25, 0x0106	; 0x800106 <key+0x1>
    1c28:	0a 97       	sbiw	r24, 0x0a	; 10
    1c2a:	0c f0       	brlt	.+2      	; 0x1c2e <F_menu+0xf8>
    1c2c:	43 c0       	rjmp	.+134    	; 0x1cb4 <F_menu+0x17e>
    1c2e:	e0 91 d4 04 	lds	r30, 0x04D4	; 0x8004d4 <cursor>
    1c32:	80 91 05 01 	lds	r24, 0x0105	; 0x800105 <key>
    1c36:	90 91 06 01 	lds	r25, 0x0106	; 0x800106 <key+0x1>
    1c3a:	0e 2e       	mov	r0, r30
    1c3c:	00 0c       	add	r0, r0
    1c3e:	ff 0b       	sbc	r31, r31
    1c40:	e7 58       	subi	r30, 0x87	; 135
    1c42:	fb 4f       	sbci	r31, 0xFB	; 251
    1c44:	80 83       	st	Z, r24
    1c46:	81 2f       	mov	r24, r17
    1c48:	01 2e       	mov	r0, r17
    1c4a:	00 0c       	add	r0, r0
    1c4c:	99 0b       	sbc	r25, r25
    1c4e:	2e ef       	ldi	r18, 0xFE	; 254
    1c50:	21 0f       	add	r18, r17
    1c52:	22 30       	cpi	r18, 0x02	; 2
    1c54:	b0 f4       	brcc	.+44     	; 0x1c82 <F_menu+0x14c>
    1c56:	e1 e0       	ldi	r30, 0x01	; 1
    1c58:	f0 e0       	ldi	r31, 0x00	; 0
    1c5a:	ec 0f       	add	r30, r28
    1c5c:	fd 1f       	adc	r31, r29
    1c5e:	e8 0f       	add	r30, r24
    1c60:	f9 1f       	adc	r31, r25
    1c62:	30 91 7b 04 	lds	r19, 0x047B	; 0x80047b <set_clock_buf+0x2>
    1c66:	20 91 7c 04 	lds	r18, 0x047C	; 0x80047c <set_clock_buf+0x3>
    1c6a:	8a e0       	ldi	r24, 0x0A	; 10
    1c6c:	38 9f       	mul	r19, r24
    1c6e:	20 0d       	add	r18, r0
    1c70:	11 24       	eor	r1, r1
    1c72:	20 83       	st	Z, r18
    1c74:	80 91 d4 04 	lds	r24, 0x04D4	; 0x8004d4 <cursor>
    1c78:	83 30       	cpi	r24, 0x03	; 3
    1c7a:	74 f4       	brge	.+28     	; 0x1c98 <F_menu+0x162>
    1c7c:	50 92 d4 04 	sts	0x04D4, r5	; 0x8004d4 <cursor>
    1c80:	0b c0       	rjmp	.+22     	; 0x1c98 <F_menu+0x162>
    1c82:	20 91 05 01 	lds	r18, 0x0105	; 0x800105 <key>
    1c86:	30 91 06 01 	lds	r19, 0x0106	; 0x800106 <key+0x1>
    1c8a:	e1 e0       	ldi	r30, 0x01	; 1
    1c8c:	f0 e0       	ldi	r31, 0x00	; 0
    1c8e:	ec 0f       	add	r30, r28
    1c90:	fd 1f       	adc	r31, r29
    1c92:	e8 0f       	add	r30, r24
    1c94:	f9 1f       	adc	r31, r25
    1c96:	20 83       	st	Z, r18
    1c98:	f0 92 06 01 	sts	0x0106, r15	; 0x800106 <key+0x1>
    1c9c:	e0 92 05 01 	sts	0x0105, r14	; 0x800105 <key>
    1ca0:	80 91 d4 04 	lds	r24, 0x04D4	; 0x8004d4 <cursor>
    1ca4:	83 30       	cpi	r24, 0x03	; 3
    1ca6:	ec f4       	brge	.+58     	; 0x1ce2 <F_menu+0x1ac>
    1ca8:	80 91 d4 04 	lds	r24, 0x04D4	; 0x8004d4 <cursor>
    1cac:	8f 5f       	subi	r24, 0xFF	; 255
    1cae:	80 93 d4 04 	sts	0x04D4, r24	; 0x8004d4 <cursor>
    1cb2:	17 c0       	rjmp	.+46     	; 0x1ce2 <F_menu+0x1ac>
    1cb4:	80 91 05 01 	lds	r24, 0x0105	; 0x800105 <key>
    1cb8:	90 91 06 01 	lds	r25, 0x0106	; 0x800106 <key+0x1>
    1cbc:	46 97       	sbiw	r24, 0x16	; 22
    1cbe:	a1 f4       	brne	.+40     	; 0x1ce8 <F_menu+0x1b2>
    1cc0:	17 30       	cpi	r17, 0x07	; 7
    1cc2:	94 f4       	brge	.+36     	; 0x1ce8 <F_menu+0x1b2>
    1cc4:	1f 5f       	subi	r17, 0xFF	; 255
    1cc6:	f0 92 06 01 	sts	0x0106, r15	; 0x800106 <key+0x1>
    1cca:	e0 92 05 01 	sts	0x0105, r14	; 0x800105 <key>
    1cce:	e1 e0       	ldi	r30, 0x01	; 1
    1cd0:	f0 e0       	ldi	r31, 0x00	; 0
    1cd2:	ec 0f       	add	r30, r28
    1cd4:	fd 1f       	adc	r31, r29
    1cd6:	e1 0f       	add	r30, r17
    1cd8:	f1 1d       	adc	r31, r1
    1cda:	60 81       	ld	r22, Z
    1cdc:	81 2f       	mov	r24, r17
    1cde:	0e 94 06 09 	call	0x120c	; 0x120c <F_menu_check>
    1ce2:	0e 94 62 09 	call	0x12c4	; 0x12c4 <Display_set_menu>
    1ce6:	91 cf       	rjmp	.-222    	; 0x1c0a <F_menu+0xd4>
    1ce8:	80 91 05 01 	lds	r24, 0x0105	; 0x800105 <key>
    1cec:	90 91 06 01 	lds	r25, 0x0106	; 0x800106 <key+0x1>
    1cf0:	45 97       	sbiw	r24, 0x15	; 21
    1cf2:	21 f4       	brne	.+8      	; 0x1cfc <F_menu+0x1c6>
    1cf4:	11 23       	and	r17, r17
    1cf6:	11 f0       	breq	.+4      	; 0x1cfc <F_menu+0x1c6>
    1cf8:	11 50       	subi	r17, 0x01	; 1
    1cfa:	e5 cf       	rjmp	.-54     	; 0x1cc6 <F_menu+0x190>
    1cfc:	80 91 05 01 	lds	r24, 0x0105	; 0x800105 <key>
    1d00:	90 91 06 01 	lds	r25, 0x0106	; 0x800106 <key+0x1>
    1d04:	40 97       	sbiw	r24, 0x10	; 16
    1d06:	21 f5       	brne	.+72     	; 0x1d50 <F_menu+0x21a>
    1d08:	f0 92 06 01 	sts	0x0106, r15	; 0x800106 <key+0x1>
    1d0c:	e0 92 05 01 	sts	0x0105, r14	; 0x800105 <key>
    1d10:	12 30       	cpi	r17, 0x02	; 2
    1d12:	31 f4       	brne	.+12     	; 0x1d20 <F_menu+0x1ea>
    1d14:	8b 81       	ldd	r24, Y+3	; 0x03
    1d16:	80 31       	cpi	r24, 0x10	; 16
    1d18:	70 f4       	brcc	.+28     	; 0x1d36 <F_menu+0x200>
    1d1a:	8f 5f       	subi	r24, 0xFF	; 255
    1d1c:	8b 83       	std	Y+3, r24	; 0x03
    1d1e:	07 c0       	rjmp	.+14     	; 0x1d2e <F_menu+0x1f8>
    1d20:	13 30       	cpi	r17, 0x03	; 3
    1d22:	49 f4       	brne	.+18     	; 0x1d36 <F_menu+0x200>
    1d24:	8c 81       	ldd	r24, Y+4	; 0x04
    1d26:	80 31       	cpi	r24, 0x10	; 16
    1d28:	30 f4       	brcc	.+12     	; 0x1d36 <F_menu+0x200>
    1d2a:	8f 5f       	subi	r24, 0xFF	; 255
    1d2c:	8c 83       	std	Y+4, r24	; 0x04
    1d2e:	60 2f       	mov	r22, r16
    1d30:	0e 94 77 21 	call	0x42ee	; 0x42ee <__udivmodqi4>
    1d34:	2a c0       	rjmp	.+84     	; 0x1d8a <F_menu+0x254>
    1d36:	e1 e0       	ldi	r30, 0x01	; 1
    1d38:	f0 e0       	ldi	r31, 0x00	; 0
    1d3a:	ec 0f       	add	r30, r28
    1d3c:	fd 1f       	adc	r31, r29
    1d3e:	e1 0f       	add	r30, r17
    1d40:	f1 1d       	adc	r31, r1
    1d42:	17 fd       	sbrc	r17, 7
    1d44:	fa 95       	dec	r31
    1d46:	80 81       	ld	r24, Z
    1d48:	89 30       	cpi	r24, 0x09	; 9
    1d4a:	58 f6       	brcc	.-106    	; 0x1ce2 <F_menu+0x1ac>
    1d4c:	8f 5f       	subi	r24, 0xFF	; 255
    1d4e:	2f c0       	rjmp	.+94     	; 0x1dae <F_menu+0x278>
    1d50:	80 91 05 01 	lds	r24, 0x0105	; 0x800105 <key>
    1d54:	90 91 06 01 	lds	r25, 0x0106	; 0x800106 <key+0x1>
    1d58:	41 97       	sbiw	r24, 0x11	; 17
    1d5a:	99 f5       	brne	.+102    	; 0x1dc2 <F_menu+0x28c>
    1d5c:	f0 92 06 01 	sts	0x0106, r15	; 0x800106 <key+0x1>
    1d60:	e0 92 05 01 	sts	0x0105, r14	; 0x800105 <key>
    1d64:	12 30       	cpi	r17, 0x02	; 2
    1d66:	31 f4       	brne	.+12     	; 0x1d74 <F_menu+0x23e>
    1d68:	8b 81       	ldd	r24, Y+3	; 0x03
    1d6a:	88 23       	and	r24, r24
    1d6c:	99 f0       	breq	.+38     	; 0x1d94 <F_menu+0x25e>
    1d6e:	81 50       	subi	r24, 0x01	; 1
    1d70:	8b 83       	std	Y+3, r24	; 0x03
    1d72:	07 c0       	rjmp	.+14     	; 0x1d82 <F_menu+0x24c>
    1d74:	13 30       	cpi	r17, 0x03	; 3
    1d76:	71 f4       	brne	.+28     	; 0x1d94 <F_menu+0x25e>
    1d78:	8c 81       	ldd	r24, Y+4	; 0x04
    1d7a:	88 23       	and	r24, r24
    1d7c:	59 f0       	breq	.+22     	; 0x1d94 <F_menu+0x25e>
    1d7e:	81 50       	subi	r24, 0x01	; 1
    1d80:	8c 83       	std	Y+4, r24	; 0x04
    1d82:	60 2f       	mov	r22, r16
    1d84:	0e 94 77 21 	call	0x42ee	; 0x42ee <__udivmodqi4>
    1d88:	8f 70       	andi	r24, 0x0F	; 15
    1d8a:	80 93 7b 04 	sts	0x047B, r24	; 0x80047b <set_clock_buf+0x2>
    1d8e:	90 93 7c 04 	sts	0x047C, r25	; 0x80047c <set_clock_buf+0x3>
    1d92:	a7 cf       	rjmp	.-178    	; 0x1ce2 <F_menu+0x1ac>
    1d94:	e1 e0       	ldi	r30, 0x01	; 1
    1d96:	f0 e0       	ldi	r31, 0x00	; 0
    1d98:	ec 0f       	add	r30, r28
    1d9a:	fd 1f       	adc	r31, r29
    1d9c:	e1 0f       	add	r30, r17
    1d9e:	f1 1d       	adc	r31, r1
    1da0:	17 fd       	sbrc	r17, 7
    1da2:	fa 95       	dec	r31
    1da4:	80 81       	ld	r24, Z
    1da6:	82 30       	cpi	r24, 0x02	; 2
    1da8:	08 f4       	brcc	.+2      	; 0x1dac <F_menu+0x276>
    1daa:	9b cf       	rjmp	.-202    	; 0x1ce2 <F_menu+0x1ac>
    1dac:	81 50       	subi	r24, 0x01	; 1
    1dae:	80 83       	st	Z, r24
    1db0:	e0 91 d4 04 	lds	r30, 0x04D4	; 0x8004d4 <cursor>
    1db4:	0e 2e       	mov	r0, r30
    1db6:	00 0c       	add	r0, r0
    1db8:	ff 0b       	sbc	r31, r31
    1dba:	e7 58       	subi	r30, 0x87	; 135
    1dbc:	fb 4f       	sbci	r31, 0xFB	; 251
    1dbe:	80 83       	st	Z, r24
    1dc0:	90 cf       	rjmp	.-224    	; 0x1ce2 <F_menu+0x1ac>
    1dc2:	80 91 05 01 	lds	r24, 0x0105	; 0x800105 <key>
    1dc6:	90 91 06 01 	lds	r25, 0x0106	; 0x800106 <key+0x1>
    1dca:	47 97       	sbiw	r24, 0x17	; 23
    1dcc:	09 f0       	breq	.+2      	; 0x1dd0 <F_menu+0x29a>
    1dce:	1d cf       	rjmp	.-454    	; 0x1c0a <F_menu+0xd4>
    1dd0:	80 e0       	ldi	r24, 0x00	; 0
    1dd2:	68 2e       	mov	r6, r24
    1dd4:	80 e0       	ldi	r24, 0x00	; 0
    1dd6:	78 2e       	mov	r7, r24
    1dd8:	fe 01       	movw	r30, r28
    1dda:	31 96       	adiw	r30, 0x01	; 1
    1ddc:	4f 01       	movw	r8, r30
    1dde:	c8 14       	cp	r12, r8
    1de0:	d9 04       	cpc	r13, r9
    1de2:	51 f0       	breq	.+20     	; 0x1df8 <F_menu+0x2c2>
    1de4:	f4 01       	movw	r30, r8
    1de6:	61 91       	ld	r22, Z+
    1de8:	4f 01       	movw	r8, r30
    1dea:	c3 01       	movw	r24, r6
    1dec:	0e 94 2c 24 	call	0x4858	; 0x4858 <eeprom_write_byte>
    1df0:	ff ef       	ldi	r31, 0xFF	; 255
    1df2:	6f 1a       	sub	r6, r31
    1df4:	7f 0a       	sbc	r7, r31
    1df6:	f3 cf       	rjmp	.-26     	; 0x1dde <F_menu+0x2a8>
    1df8:	10 92 30 04 	sts	0x0430, r1	; 0x800430 <user_instruction>
    1dfc:	b0 92 2a 04 	sts	0x042A, r11	; 0x80042a <Timer_bright+0x1>
    1e00:	a0 92 29 04 	sts	0x0429, r10	; 0x800429 <Timer_bright>
    1e04:	81 e0       	ldi	r24, 0x01	; 1
    1e06:	0e 94 0e 0b 	call	0x161c	; 0x161c <display_init>
    1e0a:	18 e0       	ldi	r17, 0x08	; 8
    1e0c:	fe ce       	rjmp	.-516    	; 0x1c0a <F_menu+0xd4>
    1e0e:	10 92 d4 04 	sts	0x04D4, r1	; 0x8004d4 <cursor>
    1e12:	10 92 31 04 	sts	0x0431, r1	; 0x800431 <shift>
    1e16:	10 92 22 04 	sts	0x0422, r1	; 0x800422 <Clock_blink>
    1e1a:	28 96       	adiw	r28, 0x08	; 8
    1e1c:	0f b6       	in	r0, 0x3f	; 63
    1e1e:	f8 94       	cli
    1e20:	de bf       	out	0x3e, r29	; 62
    1e22:	0f be       	out	0x3f, r0	; 63
    1e24:	cd bf       	out	0x3d, r28	; 61
    1e26:	df 91       	pop	r29
    1e28:	cf 91       	pop	r28
    1e2a:	1f 91       	pop	r17
    1e2c:	0f 91       	pop	r16
    1e2e:	ff 90       	pop	r15
    1e30:	ef 90       	pop	r14
    1e32:	df 90       	pop	r13
    1e34:	cf 90       	pop	r12
    1e36:	bf 90       	pop	r11
    1e38:	af 90       	pop	r10
    1e3a:	9f 90       	pop	r9
    1e3c:	8f 90       	pop	r8
    1e3e:	7f 90       	pop	r7
    1e40:	6f 90       	pop	r6
    1e42:	5f 90       	pop	r5
    1e44:	08 95       	ret

00001e46 <FAV_menu>:
    1e46:	6f 92       	push	r6
    1e48:	7f 92       	push	r7
    1e4a:	8f 92       	push	r8
    1e4c:	9f 92       	push	r9
    1e4e:	bf 92       	push	r11
    1e50:	cf 92       	push	r12
    1e52:	df 92       	push	r13
    1e54:	ef 92       	push	r14
    1e56:	ff 92       	push	r15
    1e58:	0f 93       	push	r16
    1e5a:	1f 93       	push	r17
    1e5c:	cf 93       	push	r28
    1e5e:	df 93       	push	r29
    1e60:	cd b7       	in	r28, 0x3d	; 61
    1e62:	de b7       	in	r29, 0x3e	; 62
    1e64:	28 97       	sbiw	r28, 0x08	; 8
    1e66:	0f b6       	in	r0, 0x3f	; 63
    1e68:	f8 94       	cli
    1e6a:	de bf       	out	0x3e, r29	; 62
    1e6c:	0f be       	out	0x3f, r0	; 63
    1e6e:	cd bf       	out	0x3d, r28	; 61
    1e70:	38 e0       	ldi	r19, 0x08	; 8
    1e72:	c3 2e       	mov	r12, r19
    1e74:	30 e0       	ldi	r19, 0x00	; 0
    1e76:	d3 2e       	mov	r13, r19
    1e78:	8e 01       	movw	r16, r28
    1e7a:	0f 5f       	subi	r16, 0xFF	; 255
    1e7c:	1f 4f       	sbci	r17, 0xFF	; 255
    1e7e:	f1 2c       	mov	r15, r1
    1e80:	4b e0       	ldi	r20, 0x0B	; 11
    1e82:	e4 2e       	mov	r14, r20
    1e84:	c6 01       	movw	r24, r12
    1e86:	0e 94 24 24 	call	0x4848	; 0x4848 <eeprom_read_byte>
    1e8a:	f1 10       	cpse	r15, r1
    1e8c:	08 c0       	rjmp	.+16     	; 0x1e9e <FAV_menu+0x58>
    1e8e:	8c 30       	cpi	r24, 0x0C	; 12
    1e90:	18 f4       	brcc	.+6      	; 0x1e98 <FAV_menu+0x52>
    1e92:	f8 01       	movw	r30, r16
    1e94:	80 83       	st	Z, r24
    1e96:	07 c0       	rjmp	.+14     	; 0x1ea6 <FAV_menu+0x60>
    1e98:	f8 01       	movw	r30, r16
    1e9a:	e0 82       	st	Z, r14
    1e9c:	04 c0       	rjmp	.+8      	; 0x1ea6 <FAV_menu+0x60>
    1e9e:	8a 30       	cpi	r24, 0x0A	; 10
    1ea0:	c0 f3       	brcs	.-16     	; 0x1e92 <FAV_menu+0x4c>
    1ea2:	f8 01       	movw	r30, r16
    1ea4:	10 82       	st	Z, r1
    1ea6:	f3 94       	inc	r15
    1ea8:	0f 5f       	subi	r16, 0xFF	; 255
    1eaa:	1f 4f       	sbci	r17, 0xFF	; 255
    1eac:	ff ef       	ldi	r31, 0xFF	; 255
    1eae:	cf 1a       	sub	r12, r31
    1eb0:	df 0a       	sbc	r13, r31
    1eb2:	88 e0       	ldi	r24, 0x08	; 8
    1eb4:	f8 12       	cpse	r15, r24
    1eb6:	e6 cf       	rjmp	.-52     	; 0x1e84 <FAV_menu+0x3e>
    1eb8:	87 e1       	ldi	r24, 0x17	; 23
    1eba:	80 93 79 04 	sts	0x0479, r24	; 0x800479 <set_clock_buf>
    1ebe:	21 e0       	ldi	r18, 0x01	; 1
    1ec0:	20 93 7a 04 	sts	0x047A, r18	; 0x80047a <set_clock_buf+0x1>
    1ec4:	89 81       	ldd	r24, Y+1	; 0x01
    1ec6:	6a e0       	ldi	r22, 0x0A	; 10
    1ec8:	0e 94 77 21 	call	0x42ee	; 0x42ee <__udivmodqi4>
    1ecc:	8f 70       	andi	r24, 0x0F	; 15
    1ece:	80 93 7b 04 	sts	0x047B, r24	; 0x80047b <set_clock_buf+0x2>
    1ed2:	90 93 7c 04 	sts	0x047C, r25	; 0x80047c <set_clock_buf+0x3>
    1ed6:	82 e0       	ldi	r24, 0x02	; 2
    1ed8:	80 93 d4 04 	sts	0x04D4, r24	; 0x8004d4 <cursor>
    1edc:	10 92 31 04 	sts	0x0431, r1	; 0x800431 <shift>
    1ee0:	20 93 1f 04 	sts	0x041F, r18	; 0x80041f <Menu_blink_on>
    1ee4:	0e 94 62 09 	call	0x12c4	; 0x12c4 <Display_set_menu>
    1ee8:	85 e6       	ldi	r24, 0x65	; 101
    1eea:	80 93 30 04 	sts	0x0430, r24	; 0x800430 <user_instruction>
    1eee:	10 e0       	ldi	r17, 0x00	; 0
    1ef0:	6e 01       	movw	r12, r28
    1ef2:	99 e0       	ldi	r25, 0x09	; 9
    1ef4:	c9 0e       	add	r12, r25
    1ef6:	d1 1c       	adc	r13, r1
    1ef8:	94 e0       	ldi	r25, 0x04	; 4
    1efa:	b9 2e       	mov	r11, r25
    1efc:	ee 24       	eor	r14, r14
    1efe:	ea 94       	dec	r14
    1f00:	fe 2c       	mov	r15, r14
    1f02:	0a e0       	ldi	r16, 0x0A	; 10
    1f04:	80 91 30 04 	lds	r24, 0x0430	; 0x800430 <user_instruction>
    1f08:	88 23       	and	r24, r24
    1f0a:	09 f4       	brne	.+2      	; 0x1f0e <FAV_menu+0xc8>
    1f0c:	d3 c0       	rjmp	.+422    	; 0x20b4 <FAV_menu+0x26e>
    1f0e:	80 91 05 01 	lds	r24, 0x0105	; 0x800105 <key>
    1f12:	90 91 06 01 	lds	r25, 0x0106	; 0x800106 <key+0x1>
    1f16:	97 fd       	sbrc	r25, 7
    1f18:	24 c0       	rjmp	.+72     	; 0x1f62 <FAV_menu+0x11c>
    1f1a:	80 91 05 01 	lds	r24, 0x0105	; 0x800105 <key>
    1f1e:	90 91 06 01 	lds	r25, 0x0106	; 0x800106 <key+0x1>
    1f22:	0a 97       	sbiw	r24, 0x0a	; 10
    1f24:	f4 f4       	brge	.+60     	; 0x1f62 <FAV_menu+0x11c>
    1f26:	e0 91 d4 04 	lds	r30, 0x04D4	; 0x8004d4 <cursor>
    1f2a:	80 91 05 01 	lds	r24, 0x0105	; 0x800105 <key>
    1f2e:	90 91 06 01 	lds	r25, 0x0106	; 0x800106 <key+0x1>
    1f32:	0e 2e       	mov	r0, r30
    1f34:	00 0c       	add	r0, r0
    1f36:	ff 0b       	sbc	r31, r31
    1f38:	e7 58       	subi	r30, 0x87	; 135
    1f3a:	fb 4f       	sbci	r31, 0xFB	; 251
    1f3c:	80 83       	st	Z, r24
    1f3e:	80 91 05 01 	lds	r24, 0x0105	; 0x800105 <key>
    1f42:	90 91 06 01 	lds	r25, 0x0106	; 0x800106 <key+0x1>
    1f46:	e1 e0       	ldi	r30, 0x01	; 1
    1f48:	f0 e0       	ldi	r31, 0x00	; 0
    1f4a:	ec 0f       	add	r30, r28
    1f4c:	fd 1f       	adc	r31, r29
    1f4e:	e1 0f       	add	r30, r17
    1f50:	f1 1d       	adc	r31, r1
    1f52:	17 fd       	sbrc	r17, 7
    1f54:	fa 95       	dec	r31
    1f56:	80 83       	st	Z, r24
    1f58:	f0 92 06 01 	sts	0x0106, r15	; 0x800106 <key+0x1>
    1f5c:	e0 92 05 01 	sts	0x0105, r14	; 0x800105 <key>
    1f60:	17 c0       	rjmp	.+46     	; 0x1f90 <FAV_menu+0x14a>
    1f62:	80 91 05 01 	lds	r24, 0x0105	; 0x800105 <key>
    1f66:	90 91 06 01 	lds	r25, 0x0106	; 0x800106 <key+0x1>
    1f6a:	46 97       	sbiw	r24, 0x16	; 22
    1f6c:	a1 f4       	brne	.+40     	; 0x1f96 <FAV_menu+0x150>
    1f6e:	17 30       	cpi	r17, 0x07	; 7
    1f70:	94 f4       	brge	.+36     	; 0x1f96 <FAV_menu+0x150>
    1f72:	1f 5f       	subi	r17, 0xFF	; 255
    1f74:	f0 92 06 01 	sts	0x0106, r15	; 0x800106 <key+0x1>
    1f78:	e0 92 05 01 	sts	0x0105, r14	; 0x800105 <key>
    1f7c:	e1 e0       	ldi	r30, 0x01	; 1
    1f7e:	f0 e0       	ldi	r31, 0x00	; 0
    1f80:	ec 0f       	add	r30, r28
    1f82:	fd 1f       	adc	r31, r29
    1f84:	e1 0f       	add	r30, r17
    1f86:	f1 1d       	adc	r31, r1
    1f88:	60 81       	ld	r22, Z
    1f8a:	81 2f       	mov	r24, r17
    1f8c:	0e 94 3c 09 	call	0x1278	; 0x1278 <Fav_menu_check>
    1f90:	0e 94 62 09 	call	0x12c4	; 0x12c4 <Display_set_menu>
    1f94:	b7 cf       	rjmp	.-146    	; 0x1f04 <FAV_menu+0xbe>
    1f96:	80 91 05 01 	lds	r24, 0x0105	; 0x800105 <key>
    1f9a:	90 91 06 01 	lds	r25, 0x0106	; 0x800106 <key+0x1>
    1f9e:	45 97       	sbiw	r24, 0x15	; 21
    1fa0:	21 f4       	brne	.+8      	; 0x1faa <FAV_menu+0x164>
    1fa2:	11 23       	and	r17, r17
    1fa4:	11 f0       	breq	.+4      	; 0x1faa <FAV_menu+0x164>
    1fa6:	11 50       	subi	r17, 0x01	; 1
    1fa8:	e5 cf       	rjmp	.-54     	; 0x1f74 <FAV_menu+0x12e>
    1faa:	80 91 05 01 	lds	r24, 0x0105	; 0x800105 <key>
    1fae:	90 91 06 01 	lds	r25, 0x0106	; 0x800106 <key+0x1>
    1fb2:	40 97       	sbiw	r24, 0x10	; 16
    1fb4:	e1 f4       	brne	.+56     	; 0x1fee <FAV_menu+0x1a8>
    1fb6:	f0 92 06 01 	sts	0x0106, r15	; 0x800106 <key+0x1>
    1fba:	e0 92 05 01 	sts	0x0105, r14	; 0x800105 <key>
    1fbe:	11 11       	cpse	r17, r1
    1fc0:	09 c0       	rjmp	.+18     	; 0x1fd4 <FAV_menu+0x18e>
    1fc2:	89 81       	ldd	r24, Y+1	; 0x01
    1fc4:	80 31       	cpi	r24, 0x10	; 16
    1fc6:	30 f4       	brcc	.+12     	; 0x1fd4 <FAV_menu+0x18e>
    1fc8:	8f 5f       	subi	r24, 0xFF	; 255
    1fca:	89 83       	std	Y+1, r24	; 0x01
    1fcc:	60 2f       	mov	r22, r16
    1fce:	0e 94 77 21 	call	0x42ee	; 0x42ee <__udivmodqi4>
    1fd2:	22 c0       	rjmp	.+68     	; 0x2018 <FAV_menu+0x1d2>
    1fd4:	e1 e0       	ldi	r30, 0x01	; 1
    1fd6:	f0 e0       	ldi	r31, 0x00	; 0
    1fd8:	ec 0f       	add	r30, r28
    1fda:	fd 1f       	adc	r31, r29
    1fdc:	e1 0f       	add	r30, r17
    1fde:	f1 1d       	adc	r31, r1
    1fe0:	17 fd       	sbrc	r17, 7
    1fe2:	fa 95       	dec	r31
    1fe4:	80 81       	ld	r24, Z
    1fe6:	89 30       	cpi	r24, 0x09	; 9
    1fe8:	98 f6       	brcc	.-90     	; 0x1f90 <FAV_menu+0x14a>
    1fea:	8f 5f       	subi	r24, 0xFF	; 255
    1fec:	27 c0       	rjmp	.+78     	; 0x203c <FAV_menu+0x1f6>
    1fee:	80 91 05 01 	lds	r24, 0x0105	; 0x800105 <key>
    1ff2:	90 91 06 01 	lds	r25, 0x0106	; 0x800106 <key+0x1>
    1ff6:	41 97       	sbiw	r24, 0x11	; 17
    1ff8:	59 f5       	brne	.+86     	; 0x2050 <FAV_menu+0x20a>
    1ffa:	f0 92 06 01 	sts	0x0106, r15	; 0x800106 <key+0x1>
    1ffe:	e0 92 05 01 	sts	0x0105, r14	; 0x800105 <key>
    2002:	11 11       	cpse	r17, r1
    2004:	0e c0       	rjmp	.+28     	; 0x2022 <FAV_menu+0x1dc>
    2006:	89 81       	ldd	r24, Y+1	; 0x01
    2008:	88 23       	and	r24, r24
    200a:	59 f0       	breq	.+22     	; 0x2022 <FAV_menu+0x1dc>
    200c:	81 50       	subi	r24, 0x01	; 1
    200e:	89 83       	std	Y+1, r24	; 0x01
    2010:	60 2f       	mov	r22, r16
    2012:	0e 94 77 21 	call	0x42ee	; 0x42ee <__udivmodqi4>
    2016:	8f 70       	andi	r24, 0x0F	; 15
    2018:	80 93 7b 04 	sts	0x047B, r24	; 0x80047b <set_clock_buf+0x2>
    201c:	90 93 7c 04 	sts	0x047C, r25	; 0x80047c <set_clock_buf+0x3>
    2020:	b7 cf       	rjmp	.-146    	; 0x1f90 <FAV_menu+0x14a>
    2022:	e1 e0       	ldi	r30, 0x01	; 1
    2024:	f0 e0       	ldi	r31, 0x00	; 0
    2026:	ec 0f       	add	r30, r28
    2028:	fd 1f       	adc	r31, r29
    202a:	e1 0f       	add	r30, r17
    202c:	f1 1d       	adc	r31, r1
    202e:	17 fd       	sbrc	r17, 7
    2030:	fa 95       	dec	r31
    2032:	80 81       	ld	r24, Z
    2034:	82 30       	cpi	r24, 0x02	; 2
    2036:	08 f4       	brcc	.+2      	; 0x203a <FAV_menu+0x1f4>
    2038:	ab cf       	rjmp	.-170    	; 0x1f90 <FAV_menu+0x14a>
    203a:	81 50       	subi	r24, 0x01	; 1
    203c:	80 83       	st	Z, r24
    203e:	e0 91 d4 04 	lds	r30, 0x04D4	; 0x8004d4 <cursor>
    2042:	0e 2e       	mov	r0, r30
    2044:	00 0c       	add	r0, r0
    2046:	ff 0b       	sbc	r31, r31
    2048:	e7 58       	subi	r30, 0x87	; 135
    204a:	fb 4f       	sbci	r31, 0xFB	; 251
    204c:	80 83       	st	Z, r24
    204e:	a0 cf       	rjmp	.-192    	; 0x1f90 <FAV_menu+0x14a>
    2050:	80 91 05 01 	lds	r24, 0x0105	; 0x800105 <key>
    2054:	90 91 06 01 	lds	r25, 0x0106	; 0x800106 <key+0x1>
    2058:	47 97       	sbiw	r24, 0x17	; 23
    205a:	09 f0       	breq	.+2      	; 0x205e <FAV_menu+0x218>
    205c:	53 cf       	rjmp	.-346    	; 0x1f04 <FAV_menu+0xbe>
    205e:	88 e0       	ldi	r24, 0x08	; 8
    2060:	68 2e       	mov	r6, r24
    2062:	80 e0       	ldi	r24, 0x00	; 0
    2064:	78 2e       	mov	r7, r24
    2066:	fe 01       	movw	r30, r28
    2068:	31 96       	adiw	r30, 0x01	; 1
    206a:	4f 01       	movw	r8, r30
    206c:	c8 14       	cp	r12, r8
    206e:	d9 04       	cpc	r13, r9
    2070:	51 f0       	breq	.+20     	; 0x2086 <FAV_menu+0x240>
    2072:	f4 01       	movw	r30, r8
    2074:	61 91       	ld	r22, Z+
    2076:	4f 01       	movw	r8, r30
    2078:	c3 01       	movw	r24, r6
    207a:	0e 94 2c 24 	call	0x4858	; 0x4858 <eeprom_write_byte>
    207e:	ff ef       	ldi	r31, 0xFF	; 255
    2080:	6f 1a       	sub	r6, r31
    2082:	7f 0a       	sbc	r7, r31
    2084:	f3 cf       	rjmp	.-26     	; 0x206c <FAV_menu+0x226>
    2086:	88 e0       	ldi	r24, 0x08	; 8
    2088:	90 e0       	ldi	r25, 0x00	; 0
    208a:	0e 94 24 24 	call	0x4848	; 0x4848 <eeprom_read_byte>
    208e:	80 93 cf 04 	sts	0x04CF, r24	; 0x8004cf <Digits_disp>
    2092:	80 91 cf 04 	lds	r24, 0x04CF	; 0x8004cf <Digits_disp>
    2096:	82 30       	cpi	r24, 0x02	; 2
    2098:	24 f0       	brlt	.+8      	; 0x20a2 <FAV_menu+0x25c>
    209a:	80 91 cf 04 	lds	r24, 0x04CF	; 0x8004cf <Digits_disp>
    209e:	85 31       	cpi	r24, 0x15	; 21
    20a0:	14 f0       	brlt	.+4      	; 0x20a6 <FAV_menu+0x260>
    20a2:	b0 92 cf 04 	sts	0x04CF, r11	; 0x8004cf <Digits_disp>
    20a6:	10 92 30 04 	sts	0x0430, r1	; 0x800430 <user_instruction>
    20aa:	81 e0       	ldi	r24, 0x01	; 1
    20ac:	0e 94 0e 0b 	call	0x161c	; 0x161c <display_init>
    20b0:	18 e0       	ldi	r17, 0x08	; 8
    20b2:	28 cf       	rjmp	.-432    	; 0x1f04 <FAV_menu+0xbe>
    20b4:	10 92 d4 04 	sts	0x04D4, r1	; 0x8004d4 <cursor>
    20b8:	10 92 31 04 	sts	0x0431, r1	; 0x800431 <shift>
    20bc:	10 92 22 04 	sts	0x0422, r1	; 0x800422 <Clock_blink>
    20c0:	28 96       	adiw	r28, 0x08	; 8
    20c2:	0f b6       	in	r0, 0x3f	; 63
    20c4:	f8 94       	cli
    20c6:	de bf       	out	0x3e, r29	; 62
    20c8:	0f be       	out	0x3f, r0	; 63
    20ca:	cd bf       	out	0x3d, r28	; 61
    20cc:	df 91       	pop	r29
    20ce:	cf 91       	pop	r28
    20d0:	1f 91       	pop	r17
    20d2:	0f 91       	pop	r16
    20d4:	ff 90       	pop	r15
    20d6:	ef 90       	pop	r14
    20d8:	df 90       	pop	r13
    20da:	cf 90       	pop	r12
    20dc:	bf 90       	pop	r11
    20de:	9f 90       	pop	r9
    20e0:	8f 90       	pop	r8
    20e2:	7f 90       	pop	r7
    20e4:	6f 90       	pop	r6
    20e6:	08 95       	ret

000020e8 <Set_clock>:
    20e8:	ff 92       	push	r15
    20ea:	0f 93       	push	r16
    20ec:	1f 93       	push	r17
    20ee:	cf 93       	push	r28
    20f0:	df 93       	push	r29
    20f2:	cd b7       	in	r28, 0x3d	; 61
    20f4:	de b7       	in	r29, 0x3e	; 62
    20f6:	60 97       	sbiw	r28, 0x10	; 16
    20f8:	0f b6       	in	r0, 0x3f	; 63
    20fa:	f8 94       	cli
    20fc:	de bf       	out	0x3e, r29	; 62
    20fe:	0f be       	out	0x3f, r0	; 63
    2100:	cd bf       	out	0x3d, r28	; 61
    2102:	ce 01       	movw	r24, r28
    2104:	09 96       	adiw	r24, 0x09	; 9
    2106:	0e 94 94 05 	call	0xb28	; 0xb28 <ds1302_update>
    210a:	8b 85       	ldd	r24, Y+11	; 0x0b
    210c:	98 2f       	mov	r25, r24
    210e:	92 95       	swap	r25
    2110:	9f 70       	andi	r25, 0x0F	; 15
    2112:	90 93 79 04 	sts	0x0479, r25	; 0x800479 <set_clock_buf>
    2116:	8f 70       	andi	r24, 0x0F	; 15
    2118:	80 93 7a 04 	sts	0x047A, r24	; 0x80047a <set_clock_buf+0x1>
    211c:	8a 85       	ldd	r24, Y+10	; 0x0a
    211e:	98 2f       	mov	r25, r24
    2120:	92 95       	swap	r25
    2122:	9f 70       	andi	r25, 0x0F	; 15
    2124:	90 93 7b 04 	sts	0x047B, r25	; 0x80047b <set_clock_buf+0x2>
    2128:	8f 70       	andi	r24, 0x0F	; 15
    212a:	80 93 7c 04 	sts	0x047C, r24	; 0x80047c <set_clock_buf+0x3>
    212e:	89 85       	ldd	r24, Y+9	; 0x09
    2130:	98 2f       	mov	r25, r24
    2132:	92 95       	swap	r25
    2134:	9f 70       	andi	r25, 0x0F	; 15
    2136:	90 93 7d 04 	sts	0x047D, r25	; 0x80047d <set_clock_buf+0x4>
    213a:	8f 70       	andi	r24, 0x0F	; 15
    213c:	80 93 7e 04 	sts	0x047E, r24	; 0x80047e <set_clock_buf+0x5>
    2140:	0e 94 7e 09 	call	0x12fc	; 0x12fc <Display_set_clock>
    2144:	83 e7       	ldi	r24, 0x73	; 115
    2146:	80 93 30 04 	sts	0x0430, r24	; 0x800430 <user_instruction>
    214a:	10 92 d4 04 	sts	0x04D4, r1	; 0x8004d4 <cursor>
    214e:	81 e0       	ldi	r24, 0x01	; 1
    2150:	80 93 1f 04 	sts	0x041F, r24	; 0x80041f <Menu_blink_on>
    2154:	8c e0       	ldi	r24, 0x0C	; 12
    2156:	f8 2e       	mov	r15, r24
    2158:	0f ef       	ldi	r16, 0xFF	; 255
    215a:	1f ef       	ldi	r17, 0xFF	; 255
    215c:	80 91 30 04 	lds	r24, 0x0430	; 0x800430 <user_instruction>
    2160:	88 23       	and	r24, r24
    2162:	09 f4       	brne	.+2      	; 0x2166 <Set_clock+0x7e>
    2164:	97 c0       	rjmp	.+302    	; 0x2294 <Set_clock+0x1ac>
    2166:	80 91 05 01 	lds	r24, 0x0105	; 0x800105 <key>
    216a:	90 91 06 01 	lds	r25, 0x0106	; 0x800106 <key+0x1>
    216e:	97 fd       	sbrc	r25, 7
    2170:	38 c0       	rjmp	.+112    	; 0x21e2 <Set_clock+0xfa>
    2172:	80 91 05 01 	lds	r24, 0x0105	; 0x800105 <key>
    2176:	90 91 06 01 	lds	r25, 0x0106	; 0x800106 <key+0x1>
    217a:	0a 97       	sbiw	r24, 0x0a	; 10
    217c:	94 f5       	brge	.+100    	; 0x21e2 <Set_clock+0xfa>
    217e:	e0 91 d4 04 	lds	r30, 0x04D4	; 0x8004d4 <cursor>
    2182:	80 91 05 01 	lds	r24, 0x0105	; 0x800105 <key>
    2186:	90 91 06 01 	lds	r25, 0x0106	; 0x800106 <key+0x1>
    218a:	0e 2e       	mov	r0, r30
    218c:	00 0c       	add	r0, r0
    218e:	ff 0b       	sbc	r31, r31
    2190:	e7 58       	subi	r30, 0x87	; 135
    2192:	fb 4f       	sbci	r31, 0xFB	; 251
    2194:	80 83       	st	Z, r24
    2196:	80 91 d4 04 	lds	r24, 0x04D4	; 0x8004d4 <cursor>
    219a:	81 30       	cpi	r24, 0x01	; 1
    219c:	41 f0       	breq	.+16     	; 0x21ae <Set_clock+0xc6>
    219e:	80 91 d4 04 	lds	r24, 0x04D4	; 0x8004d4 <cursor>
    21a2:	82 30       	cpi	r24, 0x02	; 2
    21a4:	21 f0       	breq	.+8      	; 0x21ae <Set_clock+0xc6>
    21a6:	80 91 d4 04 	lds	r24, 0x04D4	; 0x8004d4 <cursor>
    21aa:	83 30       	cpi	r24, 0x03	; 3
    21ac:	51 f4       	brne	.+20     	; 0x21c2 <Set_clock+0xda>
    21ae:	e0 91 d4 04 	lds	r30, 0x04D4	; 0x8004d4 <cursor>
    21b2:	0e 2e       	mov	r0, r30
    21b4:	00 0c       	add	r0, r0
    21b6:	ff 0b       	sbc	r31, r31
    21b8:	e7 58       	subi	r30, 0x87	; 135
    21ba:	fb 4f       	sbci	r31, 0xFB	; 251
    21bc:	80 81       	ld	r24, Z
    21be:	80 68       	ori	r24, 0x80	; 128
    21c0:	80 83       	st	Z, r24
    21c2:	10 93 06 01 	sts	0x0106, r17	; 0x800106 <key+0x1>
    21c6:	00 93 05 01 	sts	0x0105, r16	; 0x800105 <key>
    21ca:	80 91 d4 04 	lds	r24, 0x04D4	; 0x8004d4 <cursor>
    21ce:	85 30       	cpi	r24, 0x05	; 5
    21d0:	28 f4       	brcc	.+10     	; 0x21dc <Set_clock+0xf4>
    21d2:	80 91 d4 04 	lds	r24, 0x04D4	; 0x8004d4 <cursor>
    21d6:	8f 5f       	subi	r24, 0xFF	; 255
    21d8:	80 93 d4 04 	sts	0x04D4, r24	; 0x8004d4 <cursor>
    21dc:	0e 94 7e 09 	call	0x12fc	; 0x12fc <Display_set_clock>
    21e0:	bd cf       	rjmp	.-134    	; 0x215c <Set_clock+0x74>
    21e2:	80 91 05 01 	lds	r24, 0x0105	; 0x800105 <key>
    21e6:	90 91 06 01 	lds	r25, 0x0106	; 0x800106 <key+0x1>
    21ea:	45 97       	sbiw	r24, 0x15	; 21
    21ec:	49 f4       	brne	.+18     	; 0x2200 <Set_clock+0x118>
    21ee:	80 91 d4 04 	lds	r24, 0x04D4	; 0x8004d4 <cursor>
    21f2:	88 23       	and	r24, r24
    21f4:	09 f4       	brne	.+2      	; 0x21f8 <Set_clock+0x110>
    21f6:	b2 cf       	rjmp	.-156    	; 0x215c <Set_clock+0x74>
    21f8:	80 91 d4 04 	lds	r24, 0x04D4	; 0x8004d4 <cursor>
    21fc:	81 50       	subi	r24, 0x01	; 1
    21fe:	0e c0       	rjmp	.+28     	; 0x221c <Set_clock+0x134>
    2200:	80 91 05 01 	lds	r24, 0x0105	; 0x800105 <key>
    2204:	90 91 06 01 	lds	r25, 0x0106	; 0x800106 <key+0x1>
    2208:	46 97       	sbiw	r24, 0x16	; 22
    220a:	89 f4       	brne	.+34     	; 0x222e <Set_clock+0x146>
    220c:	80 91 d4 04 	lds	r24, 0x04D4	; 0x8004d4 <cursor>
    2210:	85 30       	cpi	r24, 0x05	; 5
    2212:	08 f0       	brcs	.+2      	; 0x2216 <Set_clock+0x12e>
    2214:	a3 cf       	rjmp	.-186    	; 0x215c <Set_clock+0x74>
    2216:	80 91 d4 04 	lds	r24, 0x04D4	; 0x8004d4 <cursor>
    221a:	8f 5f       	subi	r24, 0xFF	; 255
    221c:	80 93 d4 04 	sts	0x04D4, r24	; 0x8004d4 <cursor>
    2220:	0e 94 7e 09 	call	0x12fc	; 0x12fc <Display_set_clock>
    2224:	10 93 06 01 	sts	0x0106, r17	; 0x800106 <key+0x1>
    2228:	00 93 05 01 	sts	0x0105, r16	; 0x800105 <key>
    222c:	97 cf       	rjmp	.-210    	; 0x215c <Set_clock+0x74>
    222e:	80 91 05 01 	lds	r24, 0x0105	; 0x800105 <key>
    2232:	90 91 06 01 	lds	r25, 0x0106	; 0x800106 <key+0x1>
    2236:	47 97       	sbiw	r24, 0x17	; 23
    2238:	09 f0       	breq	.+2      	; 0x223c <Set_clock+0x154>
    223a:	90 cf       	rjmp	.-224    	; 0x215c <Set_clock+0x74>
    223c:	f8 86       	std	Y+8, r15	; 0x08
    223e:	80 91 79 04 	lds	r24, 0x0479	; 0x800479 <set_clock_buf>
    2242:	20 e1       	ldi	r18, 0x10	; 16
    2244:	82 9f       	mul	r24, r18
    2246:	c0 01       	movw	r24, r0
    2248:	11 24       	eor	r1, r1
    224a:	90 91 7a 04 	lds	r25, 0x047A	; 0x80047a <set_clock_buf+0x1>
    224e:	9f 70       	andi	r25, 0x0F	; 15
    2250:	89 2b       	or	r24, r25
    2252:	8b 83       	std	Y+3, r24	; 0x03
    2254:	80 91 7b 04 	lds	r24, 0x047B	; 0x80047b <set_clock_buf+0x2>
    2258:	20 e1       	ldi	r18, 0x10	; 16
    225a:	82 9f       	mul	r24, r18
    225c:	c0 01       	movw	r24, r0
    225e:	11 24       	eor	r1, r1
    2260:	90 91 7c 04 	lds	r25, 0x047C	; 0x80047c <set_clock_buf+0x3>
    2264:	9f 70       	andi	r25, 0x0F	; 15
    2266:	89 2b       	or	r24, r25
    2268:	8a 83       	std	Y+2, r24	; 0x02
    226a:	80 91 7d 04 	lds	r24, 0x047D	; 0x80047d <set_clock_buf+0x4>
    226e:	20 e1       	ldi	r18, 0x10	; 16
    2270:	82 9f       	mul	r24, r18
    2272:	c0 01       	movw	r24, r0
    2274:	11 24       	eor	r1, r1
    2276:	90 91 7e 04 	lds	r25, 0x047E	; 0x80047e <set_clock_buf+0x5>
    227a:	9f 70       	andi	r25, 0x0F	; 15
    227c:	89 2b       	or	r24, r25
    227e:	89 83       	std	Y+1, r24	; 0x01
    2280:	ce 01       	movw	r24, r28
    2282:	01 96       	adiw	r24, 0x01	; 1
    2284:	0e 94 b7 05 	call	0xb6e	; 0xb6e <ds1302_write_time>
    2288:	10 92 30 04 	sts	0x0430, r1	; 0x800430 <user_instruction>
    228c:	81 e0       	ldi	r24, 0x01	; 1
    228e:	0e 94 0e 0b 	call	0x161c	; 0x161c <display_init>
    2292:	64 cf       	rjmp	.-312    	; 0x215c <Set_clock+0x74>
    2294:	10 92 d4 04 	sts	0x04D4, r1	; 0x8004d4 <cursor>
    2298:	10 92 31 04 	sts	0x0431, r1	; 0x800431 <shift>
    229c:	10 92 22 04 	sts	0x0422, r1	; 0x800422 <Clock_blink>
    22a0:	10 92 1f 04 	sts	0x041F, r1	; 0x80041f <Menu_blink_on>
    22a4:	60 96       	adiw	r28, 0x10	; 16
    22a6:	0f b6       	in	r0, 0x3f	; 63
    22a8:	f8 94       	cli
    22aa:	de bf       	out	0x3e, r29	; 62
    22ac:	0f be       	out	0x3f, r0	; 63
    22ae:	cd bf       	out	0x3d, r28	; 61
    22b0:	df 91       	pop	r29
    22b2:	cf 91       	pop	r28
    22b4:	1f 91       	pop	r17
    22b6:	0f 91       	pop	r16
    22b8:	ff 90       	pop	r15
    22ba:	08 95       	ret

000022bc <Set_countdown>:
    22bc:	0f 93       	push	r16
    22be:	1f 93       	push	r17
    22c0:	cf 93       	push	r28
    22c2:	df 93       	push	r29
    22c4:	00 d0       	rcall	.+0      	; 0x22c6 <Set_countdown+0xa>
    22c6:	cd b7       	in	r28, 0x3d	; 61
    22c8:	de b7       	in	r29, 0x3e	; 62
    22ca:	8a 83       	std	Y+2, r24	; 0x02
    22cc:	8a 81       	ldd	r24, Y+2	; 0x02
    22ce:	82 30       	cpi	r24, 0x02	; 2
    22d0:	69 f0       	breq	.+26     	; 0x22ec <Set_countdown+0x30>
    22d2:	2c f4       	brge	.+10     	; 0x22de <Set_countdown+0x22>
    22d4:	81 30       	cpi	r24, 0x01	; 1
    22d6:	81 f4       	brne	.+32     	; 0x22f8 <Set_countdown+0x3c>
    22d8:	80 e1       	ldi	r24, 0x10	; 16
    22da:	90 e0       	ldi	r25, 0x00	; 0
    22dc:	0c c0       	rjmp	.+24     	; 0x22f6 <Set_countdown+0x3a>
    22de:	83 30       	cpi	r24, 0x03	; 3
    22e0:	41 f0       	breq	.+16     	; 0x22f2 <Set_countdown+0x36>
    22e2:	84 30       	cpi	r24, 0x04	; 4
    22e4:	49 f4       	brne	.+18     	; 0x22f8 <Set_countdown+0x3c>
    22e6:	89 e1       	ldi	r24, 0x19	; 25
    22e8:	90 e0       	ldi	r25, 0x00	; 0
    22ea:	05 c0       	rjmp	.+10     	; 0x22f6 <Set_countdown+0x3a>
    22ec:	83 e1       	ldi	r24, 0x13	; 19
    22ee:	90 e0       	ldi	r25, 0x00	; 0
    22f0:	02 c0       	rjmp	.+4      	; 0x22f6 <Set_countdown+0x3a>
    22f2:	86 e1       	ldi	r24, 0x16	; 22
    22f4:	90 e0       	ldi	r25, 0x00	; 0
    22f6:	89 83       	std	Y+1, r24	; 0x01
    22f8:	89 81       	ldd	r24, Y+1	; 0x01
    22fa:	08 2e       	mov	r0, r24
    22fc:	00 0c       	add	r0, r0
    22fe:	99 0b       	sbc	r25, r25
    2300:	0e 94 24 24 	call	0x4848	; 0x4848 <eeprom_read_byte>
    2304:	82 95       	swap	r24
    2306:	8f 70       	andi	r24, 0x0F	; 15
    2308:	80 93 79 04 	sts	0x0479, r24	; 0x800479 <set_clock_buf>
    230c:	89 81       	ldd	r24, Y+1	; 0x01
    230e:	08 2e       	mov	r0, r24
    2310:	00 0c       	add	r0, r0
    2312:	99 0b       	sbc	r25, r25
    2314:	0e 94 24 24 	call	0x4848	; 0x4848 <eeprom_read_byte>
    2318:	8f 70       	andi	r24, 0x0F	; 15
    231a:	80 93 7a 04 	sts	0x047A, r24	; 0x80047a <set_clock_buf+0x1>
    231e:	89 81       	ldd	r24, Y+1	; 0x01
    2320:	08 2e       	mov	r0, r24
    2322:	00 0c       	add	r0, r0
    2324:	99 0b       	sbc	r25, r25
    2326:	01 96       	adiw	r24, 0x01	; 1
    2328:	0e 94 24 24 	call	0x4848	; 0x4848 <eeprom_read_byte>
    232c:	82 95       	swap	r24
    232e:	8f 70       	andi	r24, 0x0F	; 15
    2330:	80 93 7b 04 	sts	0x047B, r24	; 0x80047b <set_clock_buf+0x2>
    2334:	89 81       	ldd	r24, Y+1	; 0x01
    2336:	08 2e       	mov	r0, r24
    2338:	00 0c       	add	r0, r0
    233a:	99 0b       	sbc	r25, r25
    233c:	01 96       	adiw	r24, 0x01	; 1
    233e:	0e 94 24 24 	call	0x4848	; 0x4848 <eeprom_read_byte>
    2342:	8f 70       	andi	r24, 0x0F	; 15
    2344:	80 93 7c 04 	sts	0x047C, r24	; 0x80047c <set_clock_buf+0x3>
    2348:	89 81       	ldd	r24, Y+1	; 0x01
    234a:	08 2e       	mov	r0, r24
    234c:	00 0c       	add	r0, r0
    234e:	99 0b       	sbc	r25, r25
    2350:	02 96       	adiw	r24, 0x02	; 2
    2352:	0e 94 24 24 	call	0x4848	; 0x4848 <eeprom_read_byte>
    2356:	82 95       	swap	r24
    2358:	8f 70       	andi	r24, 0x0F	; 15
    235a:	80 93 7d 04 	sts	0x047D, r24	; 0x80047d <set_clock_buf+0x4>
    235e:	89 81       	ldd	r24, Y+1	; 0x01
    2360:	08 2e       	mov	r0, r24
    2362:	00 0c       	add	r0, r0
    2364:	99 0b       	sbc	r25, r25
    2366:	02 96       	adiw	r24, 0x02	; 2
    2368:	0e 94 24 24 	call	0x4848	; 0x4848 <eeprom_read_byte>
    236c:	8f 70       	andi	r24, 0x0F	; 15
    236e:	80 93 7e 04 	sts	0x047E, r24	; 0x80047e <set_clock_buf+0x5>
    2372:	83 e6       	ldi	r24, 0x63	; 99
    2374:	80 93 30 04 	sts	0x0430, r24	; 0x800430 <user_instruction>
    2378:	10 92 d4 04 	sts	0x04D4, r1	; 0x8004d4 <cursor>
    237c:	81 e0       	ldi	r24, 0x01	; 1
    237e:	80 93 1f 04 	sts	0x041F, r24	; 0x80041f <Menu_blink_on>
    2382:	10 92 31 04 	sts	0x0431, r1	; 0x800431 <shift>
    2386:	0e 94 7e 09 	call	0x12fc	; 0x12fc <Display_set_clock>
    238a:	0f ef       	ldi	r16, 0xFF	; 255
    238c:	1f ef       	ldi	r17, 0xFF	; 255
    238e:	80 91 30 04 	lds	r24, 0x0430	; 0x800430 <user_instruction>
    2392:	88 23       	and	r24, r24
    2394:	09 f4       	brne	.+2      	; 0x2398 <Set_countdown+0xdc>
    2396:	a3 c0       	rjmp	.+326    	; 0x24de <Set_countdown+0x222>
    2398:	80 91 05 01 	lds	r24, 0x0105	; 0x800105 <key>
    239c:	90 91 06 01 	lds	r25, 0x0106	; 0x800106 <key+0x1>
    23a0:	97 fd       	sbrc	r25, 7
    23a2:	38 c0       	rjmp	.+112    	; 0x2414 <Set_countdown+0x158>
    23a4:	80 91 05 01 	lds	r24, 0x0105	; 0x800105 <key>
    23a8:	90 91 06 01 	lds	r25, 0x0106	; 0x800106 <key+0x1>
    23ac:	0a 97       	sbiw	r24, 0x0a	; 10
    23ae:	94 f5       	brge	.+100    	; 0x2414 <Set_countdown+0x158>
    23b0:	e0 91 d4 04 	lds	r30, 0x04D4	; 0x8004d4 <cursor>
    23b4:	80 91 05 01 	lds	r24, 0x0105	; 0x800105 <key>
    23b8:	90 91 06 01 	lds	r25, 0x0106	; 0x800106 <key+0x1>
    23bc:	0e 2e       	mov	r0, r30
    23be:	00 0c       	add	r0, r0
    23c0:	ff 0b       	sbc	r31, r31
    23c2:	e7 58       	subi	r30, 0x87	; 135
    23c4:	fb 4f       	sbci	r31, 0xFB	; 251
    23c6:	80 83       	st	Z, r24
    23c8:	80 91 d4 04 	lds	r24, 0x04D4	; 0x8004d4 <cursor>
    23cc:	81 30       	cpi	r24, 0x01	; 1
    23ce:	41 f0       	breq	.+16     	; 0x23e0 <Set_countdown+0x124>
    23d0:	80 91 d4 04 	lds	r24, 0x04D4	; 0x8004d4 <cursor>
    23d4:	82 30       	cpi	r24, 0x02	; 2
    23d6:	21 f0       	breq	.+8      	; 0x23e0 <Set_countdown+0x124>
    23d8:	80 91 d4 04 	lds	r24, 0x04D4	; 0x8004d4 <cursor>
    23dc:	83 30       	cpi	r24, 0x03	; 3
    23de:	51 f4       	brne	.+20     	; 0x23f4 <Set_countdown+0x138>
    23e0:	e0 91 d4 04 	lds	r30, 0x04D4	; 0x8004d4 <cursor>
    23e4:	0e 2e       	mov	r0, r30
    23e6:	00 0c       	add	r0, r0
    23e8:	ff 0b       	sbc	r31, r31
    23ea:	e7 58       	subi	r30, 0x87	; 135
    23ec:	fb 4f       	sbci	r31, 0xFB	; 251
    23ee:	80 81       	ld	r24, Z
    23f0:	80 68       	ori	r24, 0x80	; 128
    23f2:	80 83       	st	Z, r24
    23f4:	10 93 06 01 	sts	0x0106, r17	; 0x800106 <key+0x1>
    23f8:	00 93 05 01 	sts	0x0105, r16	; 0x800105 <key>
    23fc:	80 91 d4 04 	lds	r24, 0x04D4	; 0x8004d4 <cursor>
    2400:	85 30       	cpi	r24, 0x05	; 5
    2402:	28 f4       	brcc	.+10     	; 0x240e <Set_countdown+0x152>
    2404:	80 91 d4 04 	lds	r24, 0x04D4	; 0x8004d4 <cursor>
    2408:	8f 5f       	subi	r24, 0xFF	; 255
    240a:	80 93 d4 04 	sts	0x04D4, r24	; 0x8004d4 <cursor>
    240e:	0e 94 7e 09 	call	0x12fc	; 0x12fc <Display_set_clock>
    2412:	bd cf       	rjmp	.-134    	; 0x238e <Set_countdown+0xd2>
    2414:	80 91 05 01 	lds	r24, 0x0105	; 0x800105 <key>
    2418:	90 91 06 01 	lds	r25, 0x0106	; 0x800106 <key+0x1>
    241c:	45 97       	sbiw	r24, 0x15	; 21
    241e:	49 f4       	brne	.+18     	; 0x2432 <Set_countdown+0x176>
    2420:	80 91 d4 04 	lds	r24, 0x04D4	; 0x8004d4 <cursor>
    2424:	88 23       	and	r24, r24
    2426:	09 f4       	brne	.+2      	; 0x242a <Set_countdown+0x16e>
    2428:	b2 cf       	rjmp	.-156    	; 0x238e <Set_countdown+0xd2>
    242a:	80 91 d4 04 	lds	r24, 0x04D4	; 0x8004d4 <cursor>
    242e:	81 50       	subi	r24, 0x01	; 1
    2430:	0e c0       	rjmp	.+28     	; 0x244e <Set_countdown+0x192>
    2432:	80 91 05 01 	lds	r24, 0x0105	; 0x800105 <key>
    2436:	90 91 06 01 	lds	r25, 0x0106	; 0x800106 <key+0x1>
    243a:	46 97       	sbiw	r24, 0x16	; 22
    243c:	89 f4       	brne	.+34     	; 0x2460 <Set_countdown+0x1a4>
    243e:	80 91 d4 04 	lds	r24, 0x04D4	; 0x8004d4 <cursor>
    2442:	85 30       	cpi	r24, 0x05	; 5
    2444:	08 f0       	brcs	.+2      	; 0x2448 <Set_countdown+0x18c>
    2446:	a3 cf       	rjmp	.-186    	; 0x238e <Set_countdown+0xd2>
    2448:	80 91 d4 04 	lds	r24, 0x04D4	; 0x8004d4 <cursor>
    244c:	8f 5f       	subi	r24, 0xFF	; 255
    244e:	80 93 d4 04 	sts	0x04D4, r24	; 0x8004d4 <cursor>
    2452:	0e 94 7e 09 	call	0x12fc	; 0x12fc <Display_set_clock>
    2456:	10 93 06 01 	sts	0x0106, r17	; 0x800106 <key+0x1>
    245a:	00 93 05 01 	sts	0x0105, r16	; 0x800105 <key>
    245e:	97 cf       	rjmp	.-210    	; 0x238e <Set_countdown+0xd2>
    2460:	80 91 05 01 	lds	r24, 0x0105	; 0x800105 <key>
    2464:	90 91 06 01 	lds	r25, 0x0106	; 0x800106 <key+0x1>
    2468:	47 97       	sbiw	r24, 0x17	; 23
    246a:	09 f0       	breq	.+2      	; 0x246e <Set_countdown+0x1b2>
    246c:	90 cf       	rjmp	.-224    	; 0x238e <Set_countdown+0xd2>
    246e:	89 81       	ldd	r24, Y+1	; 0x01
    2470:	20 91 79 04 	lds	r18, 0x0479	; 0x800479 <set_clock_buf>
    2474:	90 e1       	ldi	r25, 0x10	; 16
    2476:	29 9f       	mul	r18, r25
    2478:	90 01       	movw	r18, r0
    247a:	11 24       	eor	r1, r1
    247c:	60 91 7a 04 	lds	r22, 0x047A	; 0x80047a <set_clock_buf+0x1>
    2480:	6f 70       	andi	r22, 0x0F	; 15
    2482:	62 2b       	or	r22, r18
    2484:	08 2e       	mov	r0, r24
    2486:	00 0c       	add	r0, r0
    2488:	99 0b       	sbc	r25, r25
    248a:	0e 94 2c 24 	call	0x4858	; 0x4858 <eeprom_write_byte>
    248e:	89 81       	ldd	r24, Y+1	; 0x01
    2490:	20 91 7b 04 	lds	r18, 0x047B	; 0x80047b <set_clock_buf+0x2>
    2494:	90 e1       	ldi	r25, 0x10	; 16
    2496:	29 9f       	mul	r18, r25
    2498:	90 01       	movw	r18, r0
    249a:	11 24       	eor	r1, r1
    249c:	60 91 7c 04 	lds	r22, 0x047C	; 0x80047c <set_clock_buf+0x3>
    24a0:	6f 70       	andi	r22, 0x0F	; 15
    24a2:	62 2b       	or	r22, r18
    24a4:	08 2e       	mov	r0, r24
    24a6:	00 0c       	add	r0, r0
    24a8:	99 0b       	sbc	r25, r25
    24aa:	01 96       	adiw	r24, 0x01	; 1
    24ac:	0e 94 2c 24 	call	0x4858	; 0x4858 <eeprom_write_byte>
    24b0:	89 81       	ldd	r24, Y+1	; 0x01
    24b2:	20 91 7d 04 	lds	r18, 0x047D	; 0x80047d <set_clock_buf+0x4>
    24b6:	90 e1       	ldi	r25, 0x10	; 16
    24b8:	29 9f       	mul	r18, r25
    24ba:	90 01       	movw	r18, r0
    24bc:	11 24       	eor	r1, r1
    24be:	60 91 7e 04 	lds	r22, 0x047E	; 0x80047e <set_clock_buf+0x5>
    24c2:	6f 70       	andi	r22, 0x0F	; 15
    24c4:	62 2b       	or	r22, r18
    24c6:	08 2e       	mov	r0, r24
    24c8:	00 0c       	add	r0, r0
    24ca:	99 0b       	sbc	r25, r25
    24cc:	02 96       	adiw	r24, 0x02	; 2
    24ce:	0e 94 2c 24 	call	0x4858	; 0x4858 <eeprom_write_byte>
    24d2:	10 92 30 04 	sts	0x0430, r1	; 0x800430 <user_instruction>
    24d6:	81 e0       	ldi	r24, 0x01	; 1
    24d8:	0e 94 0e 0b 	call	0x161c	; 0x161c <display_init>
    24dc:	58 cf       	rjmp	.-336    	; 0x238e <Set_countdown+0xd2>
    24de:	81 e0       	ldi	r24, 0x01	; 1
    24e0:	0e 94 0e 0b 	call	0x161c	; 0x161c <display_init>
    24e4:	0f 90       	pop	r0
    24e6:	0f 90       	pop	r0
    24e8:	df 91       	pop	r29
    24ea:	cf 91       	pop	r28
    24ec:	1f 91       	pop	r17
    24ee:	0f 91       	pop	r16
    24f0:	08 95       	ret

000024f2 <Set_date>:
    24f2:	ff 92       	push	r15
    24f4:	0f 93       	push	r16
    24f6:	1f 93       	push	r17
    24f8:	cf 93       	push	r28
    24fa:	df 93       	push	r29
    24fc:	cd b7       	in	r28, 0x3d	; 61
    24fe:	de b7       	in	r29, 0x3e	; 62
    2500:	60 97       	sbiw	r28, 0x10	; 16
    2502:	0f b6       	in	r0, 0x3f	; 63
    2504:	f8 94       	cli
    2506:	de bf       	out	0x3e, r29	; 62
    2508:	0f be       	out	0x3f, r0	; 63
    250a:	cd bf       	out	0x3d, r28	; 61
    250c:	ce 01       	movw	r24, r28
    250e:	09 96       	adiw	r24, 0x09	; 9
    2510:	0e 94 94 05 	call	0xb28	; 0xb28 <ds1302_update>
    2514:	8d 85       	ldd	r24, Y+13	; 0x0d
    2516:	98 2f       	mov	r25, r24
    2518:	92 95       	swap	r25
    251a:	9f 70       	andi	r25, 0x0F	; 15
    251c:	90 93 79 04 	sts	0x0479, r25	; 0x800479 <set_clock_buf>
    2520:	8f 70       	andi	r24, 0x0F	; 15
    2522:	80 93 7a 04 	sts	0x047A, r24	; 0x80047a <set_clock_buf+0x1>
    2526:	8e 85       	ldd	r24, Y+14	; 0x0e
    2528:	98 2f       	mov	r25, r24
    252a:	92 95       	swap	r25
    252c:	9f 70       	andi	r25, 0x0F	; 15
    252e:	90 93 7b 04 	sts	0x047B, r25	; 0x80047b <set_clock_buf+0x2>
    2532:	8f 70       	andi	r24, 0x0F	; 15
    2534:	80 93 7c 04 	sts	0x047C, r24	; 0x80047c <set_clock_buf+0x3>
    2538:	8f 85       	ldd	r24, Y+15	; 0x0f
    253a:	98 2f       	mov	r25, r24
    253c:	92 95       	swap	r25
    253e:	9f 70       	andi	r25, 0x0F	; 15
    2540:	90 93 7d 04 	sts	0x047D, r25	; 0x80047d <set_clock_buf+0x4>
    2544:	8f 70       	andi	r24, 0x0F	; 15
    2546:	80 93 7e 04 	sts	0x047E, r24	; 0x80047e <set_clock_buf+0x5>
    254a:	0e 94 7e 09 	call	0x12fc	; 0x12fc <Display_set_clock>
    254e:	84 e6       	ldi	r24, 0x64	; 100
    2550:	80 93 30 04 	sts	0x0430, r24	; 0x800430 <user_instruction>
    2554:	10 92 d4 04 	sts	0x04D4, r1	; 0x8004d4 <cursor>
    2558:	81 e0       	ldi	r24, 0x01	; 1
    255a:	80 93 1f 04 	sts	0x041F, r24	; 0x80041f <Menu_blink_on>
    255e:	8c e0       	ldi	r24, 0x0C	; 12
    2560:	f8 2e       	mov	r15, r24
    2562:	0f ef       	ldi	r16, 0xFF	; 255
    2564:	1f ef       	ldi	r17, 0xFF	; 255
    2566:	80 91 30 04 	lds	r24, 0x0430	; 0x800430 <user_instruction>
    256a:	88 23       	and	r24, r24
    256c:	09 f4       	brne	.+2      	; 0x2570 <Set_date+0x7e>
    256e:	97 c0       	rjmp	.+302    	; 0x269e <Set_date+0x1ac>
    2570:	80 91 05 01 	lds	r24, 0x0105	; 0x800105 <key>
    2574:	90 91 06 01 	lds	r25, 0x0106	; 0x800106 <key+0x1>
    2578:	97 fd       	sbrc	r25, 7
    257a:	38 c0       	rjmp	.+112    	; 0x25ec <Set_date+0xfa>
    257c:	80 91 05 01 	lds	r24, 0x0105	; 0x800105 <key>
    2580:	90 91 06 01 	lds	r25, 0x0106	; 0x800106 <key+0x1>
    2584:	0a 97       	sbiw	r24, 0x0a	; 10
    2586:	94 f5       	brge	.+100    	; 0x25ec <Set_date+0xfa>
    2588:	e0 91 d4 04 	lds	r30, 0x04D4	; 0x8004d4 <cursor>
    258c:	80 91 05 01 	lds	r24, 0x0105	; 0x800105 <key>
    2590:	90 91 06 01 	lds	r25, 0x0106	; 0x800106 <key+0x1>
    2594:	0e 2e       	mov	r0, r30
    2596:	00 0c       	add	r0, r0
    2598:	ff 0b       	sbc	r31, r31
    259a:	e7 58       	subi	r30, 0x87	; 135
    259c:	fb 4f       	sbci	r31, 0xFB	; 251
    259e:	80 83       	st	Z, r24
    25a0:	80 91 d4 04 	lds	r24, 0x04D4	; 0x8004d4 <cursor>
    25a4:	81 30       	cpi	r24, 0x01	; 1
    25a6:	41 f0       	breq	.+16     	; 0x25b8 <Set_date+0xc6>
    25a8:	80 91 d4 04 	lds	r24, 0x04D4	; 0x8004d4 <cursor>
    25ac:	82 30       	cpi	r24, 0x02	; 2
    25ae:	21 f0       	breq	.+8      	; 0x25b8 <Set_date+0xc6>
    25b0:	80 91 d4 04 	lds	r24, 0x04D4	; 0x8004d4 <cursor>
    25b4:	83 30       	cpi	r24, 0x03	; 3
    25b6:	51 f4       	brne	.+20     	; 0x25cc <Set_date+0xda>
    25b8:	e0 91 d4 04 	lds	r30, 0x04D4	; 0x8004d4 <cursor>
    25bc:	0e 2e       	mov	r0, r30
    25be:	00 0c       	add	r0, r0
    25c0:	ff 0b       	sbc	r31, r31
    25c2:	e7 58       	subi	r30, 0x87	; 135
    25c4:	fb 4f       	sbci	r31, 0xFB	; 251
    25c6:	80 81       	ld	r24, Z
    25c8:	80 68       	ori	r24, 0x80	; 128
    25ca:	80 83       	st	Z, r24
    25cc:	10 93 06 01 	sts	0x0106, r17	; 0x800106 <key+0x1>
    25d0:	00 93 05 01 	sts	0x0105, r16	; 0x800105 <key>
    25d4:	80 91 d4 04 	lds	r24, 0x04D4	; 0x8004d4 <cursor>
    25d8:	85 30       	cpi	r24, 0x05	; 5
    25da:	28 f4       	brcc	.+10     	; 0x25e6 <Set_date+0xf4>
    25dc:	80 91 d4 04 	lds	r24, 0x04D4	; 0x8004d4 <cursor>
    25e0:	8f 5f       	subi	r24, 0xFF	; 255
    25e2:	80 93 d4 04 	sts	0x04D4, r24	; 0x8004d4 <cursor>
    25e6:	0e 94 7e 09 	call	0x12fc	; 0x12fc <Display_set_clock>
    25ea:	bd cf       	rjmp	.-134    	; 0x2566 <Set_date+0x74>
    25ec:	80 91 05 01 	lds	r24, 0x0105	; 0x800105 <key>
    25f0:	90 91 06 01 	lds	r25, 0x0106	; 0x800106 <key+0x1>
    25f4:	45 97       	sbiw	r24, 0x15	; 21
    25f6:	49 f4       	brne	.+18     	; 0x260a <Set_date+0x118>
    25f8:	80 91 d4 04 	lds	r24, 0x04D4	; 0x8004d4 <cursor>
    25fc:	88 23       	and	r24, r24
    25fe:	09 f4       	brne	.+2      	; 0x2602 <Set_date+0x110>
    2600:	b2 cf       	rjmp	.-156    	; 0x2566 <Set_date+0x74>
    2602:	80 91 d4 04 	lds	r24, 0x04D4	; 0x8004d4 <cursor>
    2606:	81 50       	subi	r24, 0x01	; 1
    2608:	0e c0       	rjmp	.+28     	; 0x2626 <Set_date+0x134>
    260a:	80 91 05 01 	lds	r24, 0x0105	; 0x800105 <key>
    260e:	90 91 06 01 	lds	r25, 0x0106	; 0x800106 <key+0x1>
    2612:	46 97       	sbiw	r24, 0x16	; 22
    2614:	89 f4       	brne	.+34     	; 0x2638 <Set_date+0x146>
    2616:	80 91 d4 04 	lds	r24, 0x04D4	; 0x8004d4 <cursor>
    261a:	85 30       	cpi	r24, 0x05	; 5
    261c:	08 f0       	brcs	.+2      	; 0x2620 <Set_date+0x12e>
    261e:	a3 cf       	rjmp	.-186    	; 0x2566 <Set_date+0x74>
    2620:	80 91 d4 04 	lds	r24, 0x04D4	; 0x8004d4 <cursor>
    2624:	8f 5f       	subi	r24, 0xFF	; 255
    2626:	80 93 d4 04 	sts	0x04D4, r24	; 0x8004d4 <cursor>
    262a:	0e 94 7e 09 	call	0x12fc	; 0x12fc <Display_set_clock>
    262e:	10 93 06 01 	sts	0x0106, r17	; 0x800106 <key+0x1>
    2632:	00 93 05 01 	sts	0x0105, r16	; 0x800105 <key>
    2636:	97 cf       	rjmp	.-210    	; 0x2566 <Set_date+0x74>
    2638:	80 91 05 01 	lds	r24, 0x0105	; 0x800105 <key>
    263c:	90 91 06 01 	lds	r25, 0x0106	; 0x800106 <key+0x1>
    2640:	47 97       	sbiw	r24, 0x17	; 23
    2642:	09 f0       	breq	.+2      	; 0x2646 <Set_date+0x154>
    2644:	90 cf       	rjmp	.-224    	; 0x2566 <Set_date+0x74>
    2646:	f8 86       	std	Y+8, r15	; 0x08
    2648:	80 91 79 04 	lds	r24, 0x0479	; 0x800479 <set_clock_buf>
    264c:	20 e1       	ldi	r18, 0x10	; 16
    264e:	82 9f       	mul	r24, r18
    2650:	c0 01       	movw	r24, r0
    2652:	11 24       	eor	r1, r1
    2654:	90 91 7a 04 	lds	r25, 0x047A	; 0x80047a <set_clock_buf+0x1>
    2658:	9f 70       	andi	r25, 0x0F	; 15
    265a:	89 2b       	or	r24, r25
    265c:	8d 83       	std	Y+5, r24	; 0x05
    265e:	80 91 7b 04 	lds	r24, 0x047B	; 0x80047b <set_clock_buf+0x2>
    2662:	20 e1       	ldi	r18, 0x10	; 16
    2664:	82 9f       	mul	r24, r18
    2666:	c0 01       	movw	r24, r0
    2668:	11 24       	eor	r1, r1
    266a:	90 91 7c 04 	lds	r25, 0x047C	; 0x80047c <set_clock_buf+0x3>
    266e:	9f 70       	andi	r25, 0x0F	; 15
    2670:	89 2b       	or	r24, r25
    2672:	8e 83       	std	Y+6, r24	; 0x06
    2674:	80 91 7d 04 	lds	r24, 0x047D	; 0x80047d <set_clock_buf+0x4>
    2678:	20 e1       	ldi	r18, 0x10	; 16
    267a:	82 9f       	mul	r24, r18
    267c:	c0 01       	movw	r24, r0
    267e:	11 24       	eor	r1, r1
    2680:	90 91 7e 04 	lds	r25, 0x047E	; 0x80047e <set_clock_buf+0x5>
    2684:	9f 70       	andi	r25, 0x0F	; 15
    2686:	89 2b       	or	r24, r25
    2688:	8f 83       	std	Y+7, r24	; 0x07
    268a:	ce 01       	movw	r24, r28
    268c:	01 96       	adiw	r24, 0x01	; 1
    268e:	0e 94 d4 05 	call	0xba8	; 0xba8 <ds1302_write_date>
    2692:	10 92 30 04 	sts	0x0430, r1	; 0x800430 <user_instruction>
    2696:	81 e0       	ldi	r24, 0x01	; 1
    2698:	0e 94 0e 0b 	call	0x161c	; 0x161c <display_init>
    269c:	64 cf       	rjmp	.-312    	; 0x2566 <Set_date+0x74>
    269e:	81 e0       	ldi	r24, 0x01	; 1
    26a0:	0e 94 0e 0b 	call	0x161c	; 0x161c <display_init>
    26a4:	60 96       	adiw	r28, 0x10	; 16
    26a6:	0f b6       	in	r0, 0x3f	; 63
    26a8:	f8 94       	cli
    26aa:	de bf       	out	0x3e, r29	; 62
    26ac:	0f be       	out	0x3f, r0	; 63
    26ae:	cd bf       	out	0x3d, r28	; 61
    26b0:	df 91       	pop	r29
    26b2:	cf 91       	pop	r28
    26b4:	1f 91       	pop	r17
    26b6:	0f 91       	pop	r16
    26b8:	ff 90       	pop	r15
    26ba:	08 95       	ret

000026bc <show_brightness>:
    26bc:	cf 93       	push	r28
    26be:	df 93       	push	r29
    26c0:	00 d0       	rcall	.+0      	; 0x26c2 <show_brightness+0x6>
    26c2:	00 d0       	rcall	.+0      	; 0x26c4 <show_brightness+0x8>
    26c4:	00 d0       	rcall	.+0      	; 0x26c6 <show_brightness+0xa>
    26c6:	cd b7       	in	r28, 0x3d	; 61
    26c8:	de b7       	in	r29, 0x3e	; 62
    26ca:	80 91 09 01 	lds	r24, 0x0109	; 0x800109 <sram_brigt>
    26ce:	4a e0       	ldi	r20, 0x0A	; 10
    26d0:	be 01       	movw	r22, r28
    26d2:	6b 5f       	subi	r22, 0xFB	; 251
    26d4:	7f 4f       	sbci	r23, 0xFF	; 255
    26d6:	90 e0       	ldi	r25, 0x00	; 0
    26d8:	0e 94 bd 21 	call	0x437a	; 0x437a <__itoa_ncheck>
    26dc:	82 e1       	ldi	r24, 0x12	; 18
    26de:	80 93 7f 04 	sts	0x047F, r24	; 0x80047f <display_out_buf>
    26e2:	2d e0       	ldi	r18, 0x0D	; 13
    26e4:	20 93 80 04 	sts	0x0480, r18	; 0x800480 <display_out_buf+0x1>
    26e8:	9e 81       	ldd	r25, Y+6	; 0x06
    26ea:	8d 81       	ldd	r24, Y+5	; 0x05
    26ec:	99 23       	and	r25, r25
    26ee:	39 f0       	breq	.+14     	; 0x26fe <show_brightness+0x42>
    26f0:	8f 70       	andi	r24, 0x0F	; 15
    26f2:	80 93 81 04 	sts	0x0481, r24	; 0x800481 <display_out_buf+0x2>
    26f6:	9f 70       	andi	r25, 0x0F	; 15
    26f8:	90 93 82 04 	sts	0x0482, r25	; 0x800482 <display_out_buf+0x3>
    26fc:	05 c0       	rjmp	.+10     	; 0x2708 <show_brightness+0x4c>
    26fe:	20 93 81 04 	sts	0x0481, r18	; 0x800481 <display_out_buf+0x2>
    2702:	8f 70       	andi	r24, 0x0F	; 15
    2704:	80 93 82 04 	sts	0x0482, r24	; 0x800482 <display_out_buf+0x3>
    2708:	80 91 cf 04 	lds	r24, 0x04CF	; 0x8004cf <Digits_disp>
    270c:	86 30       	cpi	r24, 0x06	; 6
    270e:	31 f4       	brne	.+12     	; 0x271c <show_brightness+0x60>
    2710:	8d e0       	ldi	r24, 0x0D	; 13
    2712:	80 93 83 04 	sts	0x0483, r24	; 0x800483 <display_out_buf+0x4>
    2716:	80 93 84 04 	sts	0x0484, r24	; 0x800484 <display_out_buf+0x5>
    271a:	22 c0       	rjmp	.+68     	; 0x2760 <show_brightness+0xa4>
    271c:	80 91 cf 04 	lds	r24, 0x04CF	; 0x8004cf <Digits_disp>
    2720:	88 30       	cpi	r24, 0x08	; 8
    2722:	f4 f0       	brlt	.+60     	; 0x2760 <show_brightness+0xa4>
    2724:	8c e1       	ldi	r24, 0x1C	; 28
    2726:	90 e0       	ldi	r25, 0x00	; 0
    2728:	0e 94 24 24 	call	0x4848	; 0x4848 <eeprom_read_byte>
    272c:	4a e0       	ldi	r20, 0x0A	; 10
    272e:	be 01       	movw	r22, r28
    2730:	6f 5f       	subi	r22, 0xFF	; 255
    2732:	7f 4f       	sbci	r23, 0xFF	; 255
    2734:	90 e0       	ldi	r25, 0x00	; 0
    2736:	0e 94 bd 21 	call	0x437a	; 0x437a <__itoa_ncheck>
    273a:	84 e1       	ldi	r24, 0x14	; 20
    273c:	80 93 83 04 	sts	0x0483, r24	; 0x800483 <display_out_buf+0x4>
    2740:	9d e0       	ldi	r25, 0x0D	; 13
    2742:	90 93 84 04 	sts	0x0484, r25	; 0x800484 <display_out_buf+0x5>
    2746:	89 81       	ldd	r24, Y+1	; 0x01
    2748:	8f 70       	andi	r24, 0x0F	; 15
    274a:	80 93 85 04 	sts	0x0485, r24	; 0x800485 <display_out_buf+0x6>
    274e:	8a 81       	ldd	r24, Y+2	; 0x02
    2750:	88 23       	and	r24, r24
    2752:	21 f0       	breq	.+8      	; 0x275c <show_brightness+0xa0>
    2754:	8f 70       	andi	r24, 0x0F	; 15
    2756:	80 93 86 04 	sts	0x0486, r24	; 0x800486 <display_out_buf+0x7>
    275a:	02 c0       	rjmp	.+4      	; 0x2760 <show_brightness+0xa4>
    275c:	90 93 86 04 	sts	0x0486, r25	; 0x800486 <display_out_buf+0x7>
    2760:	0e 94 84 07 	call	0xf08	; 0xf08 <Display_Out>
    2764:	2f ef       	ldi	r18, 0xFF	; 255
    2766:	8d e3       	ldi	r24, 0x3D	; 61
    2768:	99 e4       	ldi	r25, 0x49	; 73
    276a:	21 50       	subi	r18, 0x01	; 1
    276c:	80 40       	sbci	r24, 0x00	; 0
    276e:	90 40       	sbci	r25, 0x00	; 0
    2770:	e1 f7       	brne	.-8      	; 0x276a <show_brightness+0xae>
    2772:	00 c0       	rjmp	.+0      	; 0x2774 <show_brightness+0xb8>
    2774:	00 00       	nop
    2776:	10 92 30 04 	sts	0x0430, r1	; 0x800430 <user_instruction>
    277a:	81 e0       	ldi	r24, 0x01	; 1
    277c:	0e 94 0e 0b 	call	0x161c	; 0x161c <display_init>
    2780:	26 96       	adiw	r28, 0x06	; 6
    2782:	0f b6       	in	r0, 0x3f	; 63
    2784:	f8 94       	cli
    2786:	de bf       	out	0x3e, r29	; 62
    2788:	0f be       	out	0x3f, r0	; 63
    278a:	cd bf       	out	0x3d, r28	; 61
    278c:	df 91       	pop	r29
    278e:	cf 91       	pop	r28
    2790:	08 95       	ret

00002792 <Modebus_receve_finish>:
    2792:	cf 93       	push	r28
    2794:	df 93       	push	r29
    2796:	20 91 18 05 	lds	r18, 0x0518	; 0x800518 <Read_Modstr+0x43>
    279a:	30 91 19 05 	lds	r19, 0x0519	; 0x800519 <Read_Modstr+0x44>
    279e:	80 91 00 01 	lds	r24, 0x0100	; 0x800100 <__data_start>
    27a2:	90 91 01 01 	lds	r25, 0x0101	; 0x800101 <__data_start+0x1>
    27a6:	28 17       	cp	r18, r24
    27a8:	39 07       	cpc	r19, r25
    27aa:	09 f0       	breq	.+2      	; 0x27ae <Modebus_receve_finish+0x1c>
    27ac:	bd c5       	rjmp	.+2938   	; 0x3328 <Modebus_receve_finish+0xb96>
    27ae:	10 92 8c 04 	sts	0x048C, r1	; 0x80048c <send_Modstr+0x2>
    27b2:	c0 91 d6 04 	lds	r28, 0x04D6	; 0x8004d6 <Read_Modstr+0x1>
    27b6:	c1 32       	cpi	r28, 0x21	; 33
    27b8:	09 f4       	brne	.+2      	; 0x27bc <Modebus_receve_finish+0x2a>
    27ba:	ff c3       	rjmp	.+2046   	; 0x2fba <Modebus_receve_finish+0x828>
    27bc:	08 f0       	brcs	.+2      	; 0x27c0 <Modebus_receve_finish+0x2e>
    27be:	ad c0       	rjmp	.+346    	; 0x291a <Modebus_receve_finish+0x188>
    27c0:	c0 31       	cpi	r28, 0x10	; 16
    27c2:	09 f4       	brne	.+2      	; 0x27c6 <Modebus_receve_finish+0x34>
    27c4:	0d c1       	rjmp	.+538    	; 0x29e0 <Modebus_receve_finish+0x24e>
    27c6:	08 f0       	brcs	.+2      	; 0x27ca <Modebus_receve_finish+0x38>
    27c8:	6a c0       	rjmp	.+212    	; 0x289e <Modebus_receve_finish+0x10c>
    27ca:	c5 30       	cpi	r28, 0x05	; 5
    27cc:	09 f4       	brne	.+2      	; 0x27d0 <Modebus_receve_finish+0x3e>
    27ce:	5d c1       	rjmp	.+698    	; 0x2a8a <Modebus_receve_finish+0x2f8>
    27d0:	90 f5       	brcc	.+100    	; 0x2836 <Modebus_receve_finish+0xa4>
    27d2:	c1 30       	cpi	r28, 0x01	; 1
    27d4:	09 f4       	brne	.+2      	; 0x27d8 <Modebus_receve_finish+0x46>
    27d6:	d0 c0       	rjmp	.+416    	; 0x2978 <Modebus_receve_finish+0x1e6>
    27d8:	c4 30       	cpi	r28, 0x04	; 4
    27da:	09 f0       	breq	.+2      	; 0x27de <Modebus_receve_finish+0x4c>
    27dc:	a5 c5       	rjmp	.+2890   	; 0x3328 <Modebus_receve_finish+0xb96>
    27de:	c0 93 8b 04 	sts	0x048B, r28	; 0x80048b <send_Modstr+0x1>
    27e2:	10 92 8d 04 	sts	0x048D, r1	; 0x80048d <send_Modstr+0x3>
    27e6:	8d b7       	in	r24, 0x3d	; 61
    27e8:	9e b7       	in	r25, 0x3e	; 62
    27ea:	85 54       	subi	r24, 0x45	; 69
    27ec:	91 09       	sbc	r25, r1
    27ee:	0f b6       	in	r0, 0x3f	; 63
    27f0:	f8 94       	cli
    27f2:	9e bf       	out	0x3e, r25	; 62
    27f4:	0f be       	out	0x3f, r0	; 63
    27f6:	8d bf       	out	0x3d, r24	; 61
    27f8:	ad b7       	in	r26, 0x3d	; 61
    27fa:	be b7       	in	r27, 0x3e	; 62
    27fc:	11 96       	adiw	r26, 0x01	; 1
    27fe:	85 e4       	ldi	r24, 0x45	; 69
    2800:	ea e8       	ldi	r30, 0x8A	; 138
    2802:	f4 e0       	ldi	r31, 0x04	; 4
    2804:	01 90       	ld	r0, Z+
    2806:	0d 92       	st	X+, r0
    2808:	8a 95       	dec	r24
    280a:	e1 f7       	brne	.-8      	; 0x2804 <Modebus_receve_finish+0x72>
    280c:	0e 94 81 06 	call	0xd02	; 0xd02 <Reply_modbus>
    2810:	10 92 30 04 	sts	0x0430, r1	; 0x800430 <user_instruction>
    2814:	10 92 1e 04 	sts	0x041E, r1	; 0x80041e <Set_countdown_bank>
    2818:	8d b7       	in	r24, 0x3d	; 61
    281a:	9e b7       	in	r25, 0x3e	; 62
    281c:	8b 5b       	subi	r24, 0xBB	; 187
    281e:	9f 4f       	sbci	r25, 0xFF	; 255
    2820:	0f b6       	in	r0, 0x3f	; 63
    2822:	f8 94       	cli
    2824:	9e bf       	out	0x3e, r25	; 62
    2826:	0f be       	out	0x3f, r0	; 63
    2828:	8d bf       	out	0x3d, r24	; 61
    282a:	81 e0       	ldi	r24, 0x01	; 1
    282c:	90 e0       	ldi	r25, 0x00	; 0
    282e:	df 91       	pop	r29
    2830:	cf 91       	pop	r28
    2832:	0c 94 0e 0b 	jmp	0x161c	; 0x161c <display_init>
    2836:	c7 30       	cpi	r28, 0x07	; 7
    2838:	09 f4       	brne	.+2      	; 0x283c <Modebus_receve_finish+0xaa>
    283a:	91 c1       	rjmp	.+802    	; 0x2b5e <Modebus_receve_finish+0x3cc>
    283c:	08 f4       	brcc	.+2      	; 0x2840 <Modebus_receve_finish+0xae>
    283e:	5a c1       	rjmp	.+692    	; 0x2af4 <Modebus_receve_finish+0x362>
    2840:	c9 30       	cpi	r28, 0x09	; 9
    2842:	09 f0       	breq	.+2      	; 0x2846 <Modebus_receve_finish+0xb4>
    2844:	71 c5       	rjmp	.+2786   	; 0x3328 <Modebus_receve_finish+0xb96>
    2846:	10 92 30 04 	sts	0x0430, r1	; 0x800430 <user_instruction>
    284a:	10 92 1e 04 	sts	0x041E, r1	; 0x80041e <Set_countdown_bank>
    284e:	81 e0       	ldi	r24, 0x01	; 1
    2850:	90 e0       	ldi	r25, 0x00	; 0
    2852:	0e 94 0e 0b 	call	0x161c	; 0x161c <display_init>
    2856:	86 e0       	ldi	r24, 0x06	; 6
    2858:	80 93 8b 04 	sts	0x048B, r24	; 0x80048b <send_Modstr+0x1>
    285c:	10 92 8d 04 	sts	0x048D, r1	; 0x80048d <send_Modstr+0x3>
    2860:	8d b7       	in	r24, 0x3d	; 61
    2862:	9e b7       	in	r25, 0x3e	; 62
    2864:	85 54       	subi	r24, 0x45	; 69
    2866:	91 09       	sbc	r25, r1
    2868:	0f b6       	in	r0, 0x3f	; 63
    286a:	f8 94       	cli
    286c:	9e bf       	out	0x3e, r25	; 62
    286e:	0f be       	out	0x3f, r0	; 63
    2870:	8d bf       	out	0x3d, r24	; 61
    2872:	ad b7       	in	r26, 0x3d	; 61
    2874:	be b7       	in	r27, 0x3e	; 62
    2876:	11 96       	adiw	r26, 0x01	; 1
    2878:	85 e4       	ldi	r24, 0x45	; 69
    287a:	ea e8       	ldi	r30, 0x8A	; 138
    287c:	f4 e0       	ldi	r31, 0x04	; 4
    287e:	01 90       	ld	r0, Z+
    2880:	0d 92       	st	X+, r0
    2882:	8a 95       	dec	r24
    2884:	e1 f7       	brne	.-8      	; 0x287e <Modebus_receve_finish+0xec>
    2886:	0e 94 81 06 	call	0xd02	; 0xd02 <Reply_modbus>
    288a:	8d b7       	in	r24, 0x3d	; 61
    288c:	9e b7       	in	r25, 0x3e	; 62
    288e:	8b 5b       	subi	r24, 0xBB	; 187
    2890:	9f 4f       	sbci	r25, 0xFF	; 255
    2892:	0f b6       	in	r0, 0x3f	; 63
    2894:	f8 94       	cli
    2896:	9e bf       	out	0x3e, r25	; 62
    2898:	0f be       	out	0x3f, r0	; 63
    289a:	8d bf       	out	0x3d, r24	; 61
    289c:	45 c5       	rjmp	.+2698   	; 0x3328 <Modebus_receve_finish+0xb96>
    289e:	c7 31       	cpi	r28, 0x17	; 23
    28a0:	09 f4       	brne	.+2      	; 0x28a4 <Modebus_receve_finish+0x112>
    28a2:	38 c5       	rjmp	.+2672   	; 0x3314 <Modebus_receve_finish+0xb82>
    28a4:	88 f5       	brcc	.+98     	; 0x2908 <Modebus_receve_finish+0x176>
    28a6:	c1 31       	cpi	r28, 0x11	; 17
    28a8:	09 f4       	brne	.+2      	; 0x28ac <Modebus_receve_finish+0x11a>
    28aa:	c4 c0       	rjmp	.+392    	; 0x2a34 <Modebus_receve_finish+0x2a2>
    28ac:	c2 31       	cpi	r28, 0x12	; 18
    28ae:	09 f0       	breq	.+2      	; 0x28b2 <Modebus_receve_finish+0x120>
    28b0:	3b c5       	rjmp	.+2678   	; 0x3328 <Modebus_receve_finish+0xb96>
    28b2:	f8 94       	cli
    28b4:	60 91 d8 04 	lds	r22, 0x04D8	; 0x8004d8 <Read_Modstr+0x3>
    28b8:	8c e1       	ldi	r24, 0x1C	; 28
    28ba:	90 e0       	ldi	r25, 0x00	; 0
    28bc:	0e 94 2c 24 	call	0x4858	; 0x4858 <eeprom_write_byte>
    28c0:	78 94       	sei
    28c2:	c0 93 8b 04 	sts	0x048B, r28	; 0x80048b <send_Modstr+0x1>
    28c6:	10 92 8d 04 	sts	0x048D, r1	; 0x80048d <send_Modstr+0x3>
    28ca:	8d b7       	in	r24, 0x3d	; 61
    28cc:	9e b7       	in	r25, 0x3e	; 62
    28ce:	85 54       	subi	r24, 0x45	; 69
    28d0:	91 09       	sbc	r25, r1
    28d2:	0f b6       	in	r0, 0x3f	; 63
    28d4:	f8 94       	cli
    28d6:	9e bf       	out	0x3e, r25	; 62
    28d8:	0f be       	out	0x3f, r0	; 63
    28da:	8d bf       	out	0x3d, r24	; 61
    28dc:	ad b7       	in	r26, 0x3d	; 61
    28de:	be b7       	in	r27, 0x3e	; 62
    28e0:	11 96       	adiw	r26, 0x01	; 1
    28e2:	85 e4       	ldi	r24, 0x45	; 69
    28e4:	ea e8       	ldi	r30, 0x8A	; 138
    28e6:	f4 e0       	ldi	r31, 0x04	; 4
    28e8:	01 90       	ld	r0, Z+
    28ea:	0d 92       	st	X+, r0
    28ec:	8a 95       	dec	r24
    28ee:	e1 f7       	brne	.-8      	; 0x28e8 <Modebus_receve_finish+0x156>
    28f0:	0e 94 81 06 	call	0xd02	; 0xd02 <Reply_modbus>
    28f4:	8d b7       	in	r24, 0x3d	; 61
    28f6:	9e b7       	in	r25, 0x3e	; 62
    28f8:	8b 5b       	subi	r24, 0xBB	; 187
    28fa:	9f 4f       	sbci	r25, 0xFF	; 255
    28fc:	0f b6       	in	r0, 0x3f	; 63
    28fe:	f8 94       	cli
    2900:	9e bf       	out	0x3e, r25	; 62
    2902:	0f be       	out	0x3f, r0	; 63
    2904:	8d bf       	out	0x3d, r24	; 61
    2906:	10 c5       	rjmp	.+2592   	; 0x3328 <Modebus_receve_finish+0xb96>
    2908:	c9 31       	cpi	r28, 0x19	; 25
    290a:	09 f4       	brne	.+2      	; 0x290e <Modebus_receve_finish+0x17c>
    290c:	bb c1       	rjmp	.+886    	; 0x2c84 <Modebus_receve_finish+0x4f2>
    290e:	08 f4       	brcc	.+2      	; 0x2912 <Modebus_receve_finish+0x180>
    2910:	88 c1       	rjmp	.+784    	; 0x2c22 <Modebus_receve_finish+0x490>
    2912:	c0 32       	cpi	r28, 0x20	; 32
    2914:	09 f4       	brne	.+2      	; 0x2918 <Modebus_receve_finish+0x186>
    2916:	23 c2       	rjmp	.+1094   	; 0x2d5e <Modebus_receve_finish+0x5cc>
    2918:	07 c5       	rjmp	.+2574   	; 0x3328 <Modebus_receve_finish+0xb96>
    291a:	c1 36       	cpi	r28, 0x61	; 97
    291c:	09 f4       	brne	.+2      	; 0x2920 <Modebus_receve_finish+0x18e>
    291e:	75 c2       	rjmp	.+1258   	; 0x2e0a <Modebus_receve_finish+0x678>
    2920:	b8 f4       	brcc	.+46     	; 0x2950 <Modebus_receve_finish+0x1be>
    2922:	c5 32       	cpi	r28, 0x25	; 37
    2924:	09 f4       	brne	.+2      	; 0x2928 <Modebus_receve_finish+0x196>
    2926:	55 c4       	rjmp	.+2218   	; 0x31d2 <Modebus_receve_finish+0xa40>
    2928:	38 f4       	brcc	.+14     	; 0x2938 <Modebus_receve_finish+0x1a6>
    292a:	c2 32       	cpi	r28, 0x22	; 34
    292c:	09 f4       	brne	.+2      	; 0x2930 <Modebus_receve_finish+0x19e>
    292e:	50 c1       	rjmp	.+672    	; 0x2bd0 <Modebus_receve_finish+0x43e>
    2930:	c4 32       	cpi	r28, 0x24	; 36
    2932:	09 f4       	brne	.+2      	; 0x2936 <Modebus_receve_finish+0x1a4>
    2934:	15 c4       	rjmp	.+2090   	; 0x3160 <Modebus_receve_finish+0x9ce>
    2936:	f8 c4       	rjmp	.+2544   	; 0x3328 <Modebus_receve_finish+0xb96>
    2938:	c7 32       	cpi	r28, 0x27	; 39
    293a:	09 f4       	brne	.+2      	; 0x293e <Modebus_receve_finish+0x1ac>
    293c:	b6 c4       	rjmp	.+2412   	; 0x32aa <Modebus_receve_finish+0xb18>
    293e:	08 f4       	brcc	.+2      	; 0x2942 <Modebus_receve_finish+0x1b0>
    2940:	7e c4       	rjmp	.+2300   	; 0x323e <Modebus_receve_finish+0xaac>
    2942:	c8 32       	cpi	r28, 0x28	; 40
    2944:	09 f0       	breq	.+2      	; 0x2948 <Modebus_receve_finish+0x1b6>
    2946:	f0 c4       	rjmp	.+2528   	; 0x3328 <Modebus_receve_finish+0xb96>
    2948:	f8 94       	cli
    294a:	c0 e0       	ldi	r28, 0x00	; 0
    294c:	d0 e0       	ldi	r29, 0x00	; 0
    294e:	d5 c1       	rjmp	.+938    	; 0x2cfa <Modebus_receve_finish+0x568>
    2950:	c4 36       	cpi	r28, 0x64	; 100
    2952:	09 f4       	brne	.+2      	; 0x2956 <Modebus_receve_finish+0x1c4>
    2954:	fd c2       	rjmp	.+1530   	; 0x2f50 <Modebus_receve_finish+0x7be>
    2956:	38 f4       	brcc	.+14     	; 0x2966 <Modebus_receve_finish+0x1d4>
    2958:	c2 36       	cpi	r28, 0x62	; 98
    295a:	09 f4       	brne	.+2      	; 0x295e <Modebus_receve_finish+0x1cc>
    295c:	8d c2       	rjmp	.+1306   	; 0x2e78 <Modebus_receve_finish+0x6e6>
    295e:	c3 36       	cpi	r28, 0x63	; 99
    2960:	09 f4       	brne	.+2      	; 0x2964 <Modebus_receve_finish+0x1d2>
    2962:	bf c2       	rjmp	.+1406   	; 0x2ee2 <Modebus_receve_finish+0x750>
    2964:	e1 c4       	rjmp	.+2498   	; 0x3328 <Modebus_receve_finish+0xb96>
    2966:	c6 36       	cpi	r28, 0x66	; 102
    2968:	09 f4       	brne	.+2      	; 0x296c <Modebus_receve_finish+0x1da>
    296a:	90 c3       	rjmp	.+1824   	; 0x308c <Modebus_receve_finish+0x8fa>
    296c:	08 f4       	brcc	.+2      	; 0x2970 <Modebus_receve_finish+0x1de>
    296e:	59 c3       	rjmp	.+1714   	; 0x3022 <Modebus_receve_finish+0x890>
    2970:	c7 36       	cpi	r28, 0x67	; 103
    2972:	09 f4       	brne	.+2      	; 0x2976 <Modebus_receve_finish+0x1e4>
    2974:	c0 c3       	rjmp	.+1920   	; 0x30f6 <Modebus_receve_finish+0x964>
    2976:	d8 c4       	rjmp	.+2480   	; 0x3328 <Modebus_receve_finish+0xb96>
    2978:	c0 93 8b 04 	sts	0x048B, r28	; 0x80048b <send_Modstr+0x1>
    297c:	e0 ef       	ldi	r30, 0xF0	; 240
    297e:	f1 e0       	ldi	r31, 0x01	; 1
    2980:	80 e0       	ldi	r24, 0x00	; 0
    2982:	90 e0       	ldi	r25, 0x00	; 0
    2984:	25 91       	lpm	r18, Z+
    2986:	dc 01       	movw	r26, r24
    2988:	a6 57       	subi	r26, 0x76	; 118
    298a:	bb 4f       	sbci	r27, 0xFB	; 251
    298c:	13 96       	adiw	r26, 0x03	; 3
    298e:	2c 93       	st	X, r18
    2990:	01 96       	adiw	r24, 0x01	; 1
    2992:	81 31       	cpi	r24, 0x11	; 17
    2994:	91 05       	cpc	r25, r1
    2996:	b1 f7       	brne	.-20     	; 0x2984 <Modebus_receve_finish+0x1f2>
    2998:	80 e1       	ldi	r24, 0x10	; 16
    299a:	80 93 8c 04 	sts	0x048C, r24	; 0x80048c <send_Modstr+0x2>
    299e:	10 92 9e 04 	sts	0x049E, r1	; 0x80049e <send_Modstr+0x14>
    29a2:	8d b7       	in	r24, 0x3d	; 61
    29a4:	9e b7       	in	r25, 0x3e	; 62
    29a6:	85 54       	subi	r24, 0x45	; 69
    29a8:	91 09       	sbc	r25, r1
    29aa:	0f b6       	in	r0, 0x3f	; 63
    29ac:	f8 94       	cli
    29ae:	9e bf       	out	0x3e, r25	; 62
    29b0:	0f be       	out	0x3f, r0	; 63
    29b2:	8d bf       	out	0x3d, r24	; 61
    29b4:	ad b7       	in	r26, 0x3d	; 61
    29b6:	be b7       	in	r27, 0x3e	; 62
    29b8:	11 96       	adiw	r26, 0x01	; 1
    29ba:	85 e4       	ldi	r24, 0x45	; 69
    29bc:	ea e8       	ldi	r30, 0x8A	; 138
    29be:	f4 e0       	ldi	r31, 0x04	; 4
    29c0:	01 90       	ld	r0, Z+
    29c2:	0d 92       	st	X+, r0
    29c4:	8a 95       	dec	r24
    29c6:	e1 f7       	brne	.-8      	; 0x29c0 <Modebus_receve_finish+0x22e>
    29c8:	0e 94 81 06 	call	0xd02	; 0xd02 <Reply_modbus>
    29cc:	8d b7       	in	r24, 0x3d	; 61
    29ce:	9e b7       	in	r25, 0x3e	; 62
    29d0:	8b 5b       	subi	r24, 0xBB	; 187
    29d2:	9f 4f       	sbci	r25, 0xFF	; 255
    29d4:	0f b6       	in	r0, 0x3f	; 63
    29d6:	f8 94       	cli
    29d8:	9e bf       	out	0x3e, r25	; 62
    29da:	0f be       	out	0x3f, r0	; 63
    29dc:	8d bf       	out	0x3d, r24	; 61
    29de:	a4 c4       	rjmp	.+2376   	; 0x3328 <Modebus_receve_finish+0xb96>
    29e0:	c0 93 8b 04 	sts	0x048B, r28	; 0x80048b <send_Modstr+0x1>
    29e4:	80 91 09 01 	lds	r24, 0x0109	; 0x800109 <sram_brigt>
    29e8:	80 93 8d 04 	sts	0x048D, r24	; 0x80048d <send_Modstr+0x3>
    29ec:	10 92 8e 04 	sts	0x048E, r1	; 0x80048e <send_Modstr+0x4>
    29f0:	81 e0       	ldi	r24, 0x01	; 1
    29f2:	80 93 8c 04 	sts	0x048C, r24	; 0x80048c <send_Modstr+0x2>
    29f6:	8d b7       	in	r24, 0x3d	; 61
    29f8:	9e b7       	in	r25, 0x3e	; 62
    29fa:	85 54       	subi	r24, 0x45	; 69
    29fc:	91 09       	sbc	r25, r1
    29fe:	0f b6       	in	r0, 0x3f	; 63
    2a00:	f8 94       	cli
    2a02:	9e bf       	out	0x3e, r25	; 62
    2a04:	0f be       	out	0x3f, r0	; 63
    2a06:	8d bf       	out	0x3d, r24	; 61
    2a08:	ad b7       	in	r26, 0x3d	; 61
    2a0a:	be b7       	in	r27, 0x3e	; 62
    2a0c:	11 96       	adiw	r26, 0x01	; 1
    2a0e:	85 e4       	ldi	r24, 0x45	; 69
    2a10:	ea e8       	ldi	r30, 0x8A	; 138
    2a12:	f4 e0       	ldi	r31, 0x04	; 4
    2a14:	01 90       	ld	r0, Z+
    2a16:	0d 92       	st	X+, r0
    2a18:	8a 95       	dec	r24
    2a1a:	e1 f7       	brne	.-8      	; 0x2a14 <Modebus_receve_finish+0x282>
    2a1c:	0e 94 81 06 	call	0xd02	; 0xd02 <Reply_modbus>
    2a20:	8d b7       	in	r24, 0x3d	; 61
    2a22:	9e b7       	in	r25, 0x3e	; 62
    2a24:	8b 5b       	subi	r24, 0xBB	; 187
    2a26:	9f 4f       	sbci	r25, 0xFF	; 255
    2a28:	0f b6       	in	r0, 0x3f	; 63
    2a2a:	f8 94       	cli
    2a2c:	9e bf       	out	0x3e, r25	; 62
    2a2e:	0f be       	out	0x3f, r0	; 63
    2a30:	8d bf       	out	0x3d, r24	; 61
    2a32:	7a c4       	rjmp	.+2292   	; 0x3328 <Modebus_receve_finish+0xb96>
    2a34:	f8 94       	cli
    2a36:	60 91 d8 04 	lds	r22, 0x04D8	; 0x8004d8 <Read_Modstr+0x3>
    2a3a:	82 e0       	ldi	r24, 0x02	; 2
    2a3c:	90 e0       	ldi	r25, 0x00	; 0
    2a3e:	0e 94 2c 24 	call	0x4858	; 0x4858 <eeprom_write_byte>
    2a42:	78 94       	sei
    2a44:	c0 93 8b 04 	sts	0x048B, r28	; 0x80048b <send_Modstr+0x1>
    2a48:	10 92 8d 04 	sts	0x048D, r1	; 0x80048d <send_Modstr+0x3>
    2a4c:	8d b7       	in	r24, 0x3d	; 61
    2a4e:	9e b7       	in	r25, 0x3e	; 62
    2a50:	85 54       	subi	r24, 0x45	; 69
    2a52:	91 09       	sbc	r25, r1
    2a54:	0f b6       	in	r0, 0x3f	; 63
    2a56:	f8 94       	cli
    2a58:	9e bf       	out	0x3e, r25	; 62
    2a5a:	0f be       	out	0x3f, r0	; 63
    2a5c:	8d bf       	out	0x3d, r24	; 61
    2a5e:	ad b7       	in	r26, 0x3d	; 61
    2a60:	be b7       	in	r27, 0x3e	; 62
    2a62:	11 96       	adiw	r26, 0x01	; 1
    2a64:	85 e4       	ldi	r24, 0x45	; 69
    2a66:	ea e8       	ldi	r30, 0x8A	; 138
    2a68:	f4 e0       	ldi	r31, 0x04	; 4
    2a6a:	01 90       	ld	r0, Z+
    2a6c:	0d 92       	st	X+, r0
    2a6e:	8a 95       	dec	r24
    2a70:	e1 f7       	brne	.-8      	; 0x2a6a <Modebus_receve_finish+0x2d8>
    2a72:	0e 94 81 06 	call	0xd02	; 0xd02 <Reply_modbus>
    2a76:	8d b7       	in	r24, 0x3d	; 61
    2a78:	9e b7       	in	r25, 0x3e	; 62
    2a7a:	8b 5b       	subi	r24, 0xBB	; 187
    2a7c:	9f 4f       	sbci	r25, 0xFF	; 255
    2a7e:	0f b6       	in	r0, 0x3f	; 63
    2a80:	f8 94       	cli
    2a82:	9e bf       	out	0x3e, r25	; 62
    2a84:	0f be       	out	0x3f, r0	; 63
    2a86:	8d bf       	out	0x3d, r24	; 61
    2a88:	4f c4       	rjmp	.+2206   	; 0x3328 <Modebus_receve_finish+0xb96>
    2a8a:	80 91 30 04 	lds	r24, 0x0430	; 0x800430 <user_instruction>
    2a8e:	81 34       	cpi	r24, 0x41	; 65
    2a90:	69 f0       	breq	.+26     	; 0x2aac <Modebus_receve_finish+0x31a>
    2a92:	80 91 30 04 	lds	r24, 0x0430	; 0x800430 <user_instruction>
    2a96:	81 36       	cpi	r24, 0x61	; 97
    2a98:	49 f0       	breq	.+18     	; 0x2aac <Modebus_receve_finish+0x31a>
    2a9a:	81 e4       	ldi	r24, 0x41	; 65
    2a9c:	80 93 30 04 	sts	0x0430, r24	; 0x800430 <user_instruction>
    2aa0:	8f ef       	ldi	r24, 0xFF	; 255
    2aa2:	9f ef       	ldi	r25, 0xFF	; 255
    2aa4:	90 93 06 01 	sts	0x0106, r25	; 0x800106 <key+0x1>
    2aa8:	80 93 05 01 	sts	0x0105, r24	; 0x800105 <key>
    2aac:	85 e0       	ldi	r24, 0x05	; 5
    2aae:	80 93 8b 04 	sts	0x048B, r24	; 0x80048b <send_Modstr+0x1>
    2ab2:	10 92 8d 04 	sts	0x048D, r1	; 0x80048d <send_Modstr+0x3>
    2ab6:	8d b7       	in	r24, 0x3d	; 61
    2ab8:	9e b7       	in	r25, 0x3e	; 62
    2aba:	85 54       	subi	r24, 0x45	; 69
    2abc:	91 09       	sbc	r25, r1
    2abe:	0f b6       	in	r0, 0x3f	; 63
    2ac0:	f8 94       	cli
    2ac2:	9e bf       	out	0x3e, r25	; 62
    2ac4:	0f be       	out	0x3f, r0	; 63
    2ac6:	8d bf       	out	0x3d, r24	; 61
    2ac8:	ad b7       	in	r26, 0x3d	; 61
    2aca:	be b7       	in	r27, 0x3e	; 62
    2acc:	11 96       	adiw	r26, 0x01	; 1
    2ace:	85 e4       	ldi	r24, 0x45	; 69
    2ad0:	ea e8       	ldi	r30, 0x8A	; 138
    2ad2:	f4 e0       	ldi	r31, 0x04	; 4
    2ad4:	01 90       	ld	r0, Z+
    2ad6:	0d 92       	st	X+, r0
    2ad8:	8a 95       	dec	r24
    2ada:	e1 f7       	brne	.-8      	; 0x2ad4 <Modebus_receve_finish+0x342>
    2adc:	0e 94 81 06 	call	0xd02	; 0xd02 <Reply_modbus>
    2ae0:	8d b7       	in	r24, 0x3d	; 61
    2ae2:	9e b7       	in	r25, 0x3e	; 62
    2ae4:	8b 5b       	subi	r24, 0xBB	; 187
    2ae6:	9f 4f       	sbci	r25, 0xFF	; 255
    2ae8:	0f b6       	in	r0, 0x3f	; 63
    2aea:	f8 94       	cli
    2aec:	9e bf       	out	0x3e, r25	; 62
    2aee:	0f be       	out	0x3f, r0	; 63
    2af0:	8d bf       	out	0x3d, r24	; 61
    2af2:	1a c4       	rjmp	.+2100   	; 0x3328 <Modebus_receve_finish+0xb96>
    2af4:	80 91 30 04 	lds	r24, 0x0430	; 0x800430 <user_instruction>
    2af8:	82 34       	cpi	r24, 0x42	; 66
    2afa:	69 f0       	breq	.+26     	; 0x2b16 <Modebus_receve_finish+0x384>
    2afc:	80 91 30 04 	lds	r24, 0x0430	; 0x800430 <user_instruction>
    2b00:	82 36       	cpi	r24, 0x62	; 98
    2b02:	49 f0       	breq	.+18     	; 0x2b16 <Modebus_receve_finish+0x384>
    2b04:	82 e4       	ldi	r24, 0x42	; 66
    2b06:	80 93 30 04 	sts	0x0430, r24	; 0x800430 <user_instruction>
    2b0a:	8f ef       	ldi	r24, 0xFF	; 255
    2b0c:	9f ef       	ldi	r25, 0xFF	; 255
    2b0e:	90 93 06 01 	sts	0x0106, r25	; 0x800106 <key+0x1>
    2b12:	80 93 05 01 	sts	0x0105, r24	; 0x800105 <key>
    2b16:	86 e0       	ldi	r24, 0x06	; 6
    2b18:	80 93 8b 04 	sts	0x048B, r24	; 0x80048b <send_Modstr+0x1>
    2b1c:	10 92 8d 04 	sts	0x048D, r1	; 0x80048d <send_Modstr+0x3>
    2b20:	8d b7       	in	r24, 0x3d	; 61
    2b22:	9e b7       	in	r25, 0x3e	; 62
    2b24:	85 54       	subi	r24, 0x45	; 69
    2b26:	91 09       	sbc	r25, r1
    2b28:	0f b6       	in	r0, 0x3f	; 63
    2b2a:	f8 94       	cli
    2b2c:	9e bf       	out	0x3e, r25	; 62
    2b2e:	0f be       	out	0x3f, r0	; 63
    2b30:	8d bf       	out	0x3d, r24	; 61
    2b32:	ad b7       	in	r26, 0x3d	; 61
    2b34:	be b7       	in	r27, 0x3e	; 62
    2b36:	11 96       	adiw	r26, 0x01	; 1
    2b38:	85 e4       	ldi	r24, 0x45	; 69
    2b3a:	ea e8       	ldi	r30, 0x8A	; 138
    2b3c:	f4 e0       	ldi	r31, 0x04	; 4
    2b3e:	01 90       	ld	r0, Z+
    2b40:	0d 92       	st	X+, r0
    2b42:	8a 95       	dec	r24
    2b44:	e1 f7       	brne	.-8      	; 0x2b3e <Modebus_receve_finish+0x3ac>
    2b46:	0e 94 81 06 	call	0xd02	; 0xd02 <Reply_modbus>
    2b4a:	8d b7       	in	r24, 0x3d	; 61
    2b4c:	9e b7       	in	r25, 0x3e	; 62
    2b4e:	8b 5b       	subi	r24, 0xBB	; 187
    2b50:	9f 4f       	sbci	r25, 0xFF	; 255
    2b52:	0f b6       	in	r0, 0x3f	; 63
    2b54:	f8 94       	cli
    2b56:	9e bf       	out	0x3e, r25	; 62
    2b58:	0f be       	out	0x3f, r0	; 63
    2b5a:	8d bf       	out	0x3d, r24	; 61
    2b5c:	e5 c3       	rjmp	.+1994   	; 0x3328 <Modebus_receve_finish+0xb96>
    2b5e:	85 e5       	ldi	r24, 0x55	; 85
    2b60:	80 93 30 04 	sts	0x0430, r24	; 0x800430 <user_instruction>
    2b64:	8f ef       	ldi	r24, 0xFF	; 255
    2b66:	9f ef       	ldi	r25, 0xFF	; 255
    2b68:	90 93 06 01 	sts	0x0106, r25	; 0x800106 <key+0x1>
    2b6c:	80 93 05 01 	sts	0x0105, r24	; 0x800105 <key>
    2b70:	10 92 b1 00 	sts	0x00B1, r1	; 0x8000b1 <__TEXT_REGION_LENGTH__+0x7f80b1>
    2b74:	10 92 b2 00 	sts	0x00B2, r1	; 0x8000b2 <__TEXT_REGION_LENGTH__+0x7f80b2>
    2b78:	10 92 76 04 	sts	0x0476, r1	; 0x800476 <timer>
    2b7c:	10 92 77 04 	sts	0x0477, r1	; 0x800477 <timer+0x1>
    2b80:	10 92 78 04 	sts	0x0478, r1	; 0x800478 <timer+0x2>
    2b84:	80 e8       	ldi	r24, 0x80	; 128
    2b86:	80 93 20 04 	sts	0x0420, r24	; 0x800420 <Timer_blink_on>
    2b8a:	c0 93 8b 04 	sts	0x048B, r28	; 0x80048b <send_Modstr+0x1>
    2b8e:	10 92 8d 04 	sts	0x048D, r1	; 0x80048d <send_Modstr+0x3>
    2b92:	8d b7       	in	r24, 0x3d	; 61
    2b94:	9e b7       	in	r25, 0x3e	; 62
    2b96:	85 54       	subi	r24, 0x45	; 69
    2b98:	91 09       	sbc	r25, r1
    2b9a:	0f b6       	in	r0, 0x3f	; 63
    2b9c:	f8 94       	cli
    2b9e:	9e bf       	out	0x3e, r25	; 62
    2ba0:	0f be       	out	0x3f, r0	; 63
    2ba2:	8d bf       	out	0x3d, r24	; 61
    2ba4:	ad b7       	in	r26, 0x3d	; 61
    2ba6:	be b7       	in	r27, 0x3e	; 62
    2ba8:	11 96       	adiw	r26, 0x01	; 1
    2baa:	85 e4       	ldi	r24, 0x45	; 69
    2bac:	ea e8       	ldi	r30, 0x8A	; 138
    2bae:	f4 e0       	ldi	r31, 0x04	; 4
    2bb0:	01 90       	ld	r0, Z+
    2bb2:	0d 92       	st	X+, r0
    2bb4:	8a 95       	dec	r24
    2bb6:	e1 f7       	brne	.-8      	; 0x2bb0 <Modebus_receve_finish+0x41e>
    2bb8:	0e 94 81 06 	call	0xd02	; 0xd02 <Reply_modbus>
    2bbc:	8d b7       	in	r24, 0x3d	; 61
    2bbe:	9e b7       	in	r25, 0x3e	; 62
    2bc0:	8b 5b       	subi	r24, 0xBB	; 187
    2bc2:	9f 4f       	sbci	r25, 0xFF	; 255
    2bc4:	0f b6       	in	r0, 0x3f	; 63
    2bc6:	f8 94       	cli
    2bc8:	9e bf       	out	0x3e, r25	; 62
    2bca:	0f be       	out	0x3f, r0	; 63
    2bcc:	8d bf       	out	0x3d, r24	; 61
    2bce:	ac c3       	rjmp	.+1880   	; 0x3328 <Modebus_receve_finish+0xb96>
    2bd0:	87 e1       	ldi	r24, 0x17	; 23
    2bd2:	90 e0       	ldi	r25, 0x00	; 0
    2bd4:	90 93 06 01 	sts	0x0106, r25	; 0x800106 <key+0x1>
    2bd8:	80 93 05 01 	sts	0x0105, r24	; 0x800105 <key>
    2bdc:	c0 93 8b 04 	sts	0x048B, r28	; 0x80048b <send_Modstr+0x1>
    2be0:	10 92 8d 04 	sts	0x048D, r1	; 0x80048d <send_Modstr+0x3>
    2be4:	8d b7       	in	r24, 0x3d	; 61
    2be6:	9e b7       	in	r25, 0x3e	; 62
    2be8:	85 54       	subi	r24, 0x45	; 69
    2bea:	91 09       	sbc	r25, r1
    2bec:	0f b6       	in	r0, 0x3f	; 63
    2bee:	f8 94       	cli
    2bf0:	9e bf       	out	0x3e, r25	; 62
    2bf2:	0f be       	out	0x3f, r0	; 63
    2bf4:	8d bf       	out	0x3d, r24	; 61
    2bf6:	ad b7       	in	r26, 0x3d	; 61
    2bf8:	be b7       	in	r27, 0x3e	; 62
    2bfa:	11 96       	adiw	r26, 0x01	; 1
    2bfc:	85 e4       	ldi	r24, 0x45	; 69
    2bfe:	ea e8       	ldi	r30, 0x8A	; 138
    2c00:	f4 e0       	ldi	r31, 0x04	; 4
    2c02:	01 90       	ld	r0, Z+
    2c04:	0d 92       	st	X+, r0
    2c06:	8a 95       	dec	r24
    2c08:	e1 f7       	brne	.-8      	; 0x2c02 <Modebus_receve_finish+0x470>
    2c0a:	0e 94 81 06 	call	0xd02	; 0xd02 <Reply_modbus>
    2c0e:	8d b7       	in	r24, 0x3d	; 61
    2c10:	9e b7       	in	r25, 0x3e	; 62
    2c12:	8b 5b       	subi	r24, 0xBB	; 187
    2c14:	9f 4f       	sbci	r25, 0xFF	; 255
    2c16:	0f b6       	in	r0, 0x3f	; 63
    2c18:	f8 94       	cli
    2c1a:	9e bf       	out	0x3e, r25	; 62
    2c1c:	0f be       	out	0x3f, r0	; 63
    2c1e:	8d bf       	out	0x3d, r24	; 61
    2c20:	83 c3       	rjmp	.+1798   	; 0x3328 <Modebus_receve_finish+0xb96>
    2c22:	f8 94       	cli
    2c24:	8e e0       	ldi	r24, 0x0E	; 14
    2c26:	90 e0       	ldi	r25, 0x00	; 0
    2c28:	0e 94 24 24 	call	0x4848	; 0x4848 <eeprom_read_byte>
    2c2c:	88 23       	and	r24, r24
    2c2e:	11 f0       	breq	.+4      	; 0x2c34 <Modebus_receve_finish+0x4a2>
    2c30:	81 e0       	ldi	r24, 0x01	; 1
    2c32:	01 c0       	rjmp	.+2      	; 0x2c36 <Modebus_receve_finish+0x4a4>
    2c34:	85 e0       	ldi	r24, 0x05	; 5
    2c36:	80 93 b1 00 	sts	0x00B1, r24	; 0x8000b1 <__TEXT_REGION_LENGTH__+0x7f80b1>
    2c3a:	78 94       	sei
    2c3c:	88 e1       	ldi	r24, 0x18	; 24
    2c3e:	80 93 8b 04 	sts	0x048B, r24	; 0x80048b <send_Modstr+0x1>
    2c42:	10 92 8d 04 	sts	0x048D, r1	; 0x80048d <send_Modstr+0x3>
    2c46:	8d b7       	in	r24, 0x3d	; 61
    2c48:	9e b7       	in	r25, 0x3e	; 62
    2c4a:	85 54       	subi	r24, 0x45	; 69
    2c4c:	91 09       	sbc	r25, r1
    2c4e:	0f b6       	in	r0, 0x3f	; 63
    2c50:	f8 94       	cli
    2c52:	9e bf       	out	0x3e, r25	; 62
    2c54:	0f be       	out	0x3f, r0	; 63
    2c56:	8d bf       	out	0x3d, r24	; 61
    2c58:	ad b7       	in	r26, 0x3d	; 61
    2c5a:	be b7       	in	r27, 0x3e	; 62
    2c5c:	11 96       	adiw	r26, 0x01	; 1
    2c5e:	85 e4       	ldi	r24, 0x45	; 69
    2c60:	ea e8       	ldi	r30, 0x8A	; 138
    2c62:	f4 e0       	ldi	r31, 0x04	; 4
    2c64:	01 90       	ld	r0, Z+
    2c66:	0d 92       	st	X+, r0
    2c68:	8a 95       	dec	r24
    2c6a:	e1 f7       	brne	.-8      	; 0x2c64 <Modebus_receve_finish+0x4d2>
    2c6c:	0e 94 81 06 	call	0xd02	; 0xd02 <Reply_modbus>
    2c70:	8d b7       	in	r24, 0x3d	; 61
    2c72:	9e b7       	in	r25, 0x3e	; 62
    2c74:	8b 5b       	subi	r24, 0xBB	; 187
    2c76:	9f 4f       	sbci	r25, 0xFF	; 255
    2c78:	0f b6       	in	r0, 0x3f	; 63
    2c7a:	f8 94       	cli
    2c7c:	9e bf       	out	0x3e, r25	; 62
    2c7e:	0f be       	out	0x3f, r0	; 63
    2c80:	8d bf       	out	0x3d, r24	; 61
    2c82:	24 c0       	rjmp	.+72     	; 0x2ccc <Modebus_receve_finish+0x53a>
    2c84:	10 92 b1 00 	sts	0x00B1, r1	; 0x8000b1 <__TEXT_REGION_LENGTH__+0x7f80b1>
    2c88:	c0 93 8b 04 	sts	0x048B, r28	; 0x80048b <send_Modstr+0x1>
    2c8c:	10 92 8d 04 	sts	0x048D, r1	; 0x80048d <send_Modstr+0x3>
    2c90:	8d b7       	in	r24, 0x3d	; 61
    2c92:	9e b7       	in	r25, 0x3e	; 62
    2c94:	85 54       	subi	r24, 0x45	; 69
    2c96:	91 09       	sbc	r25, r1
    2c98:	0f b6       	in	r0, 0x3f	; 63
    2c9a:	f8 94       	cli
    2c9c:	9e bf       	out	0x3e, r25	; 62
    2c9e:	0f be       	out	0x3f, r0	; 63
    2ca0:	8d bf       	out	0x3d, r24	; 61
    2ca2:	ad b7       	in	r26, 0x3d	; 61
    2ca4:	be b7       	in	r27, 0x3e	; 62
    2ca6:	11 96       	adiw	r26, 0x01	; 1
    2ca8:	85 e4       	ldi	r24, 0x45	; 69
    2caa:	ea e8       	ldi	r30, 0x8A	; 138
    2cac:	f4 e0       	ldi	r31, 0x04	; 4
    2cae:	01 90       	ld	r0, Z+
    2cb0:	0d 92       	st	X+, r0
    2cb2:	8a 95       	dec	r24
    2cb4:	e1 f7       	brne	.-8      	; 0x2cae <Modebus_receve_finish+0x51c>
    2cb6:	0e 94 81 06 	call	0xd02	; 0xd02 <Reply_modbus>
    2cba:	8d b7       	in	r24, 0x3d	; 61
    2cbc:	9e b7       	in	r25, 0x3e	; 62
    2cbe:	8b 5b       	subi	r24, 0xBB	; 187
    2cc0:	9f 4f       	sbci	r25, 0xFF	; 255
    2cc2:	0f b6       	in	r0, 0x3f	; 63
    2cc4:	f8 94       	cli
    2cc6:	9e bf       	out	0x3e, r25	; 62
    2cc8:	0f be       	out	0x3f, r0	; 63
    2cca:	8d bf       	out	0x3d, r24	; 61
    2ccc:	68 e9       	ldi	r22, 0x98	; 152
    2cce:	71 e2       	ldi	r23, 0x21	; 33
    2cd0:	81 e0       	ldi	r24, 0x01	; 1
    2cd2:	90 e0       	ldi	r25, 0x00	; 0
    2cd4:	0e 94 59 09 	call	0x12b2	; 0x12b2 <Buzzer>
    2cd8:	9f ef       	ldi	r25, 0xFF	; 255
    2cda:	22 e5       	ldi	r18, 0x52	; 82
    2cdc:	87 e0       	ldi	r24, 0x07	; 7
    2cde:	91 50       	subi	r25, 0x01	; 1
    2ce0:	20 40       	sbci	r18, 0x00	; 0
    2ce2:	80 40       	sbci	r24, 0x00	; 0
    2ce4:	e1 f7       	brne	.-8      	; 0x2cde <Modebus_receve_finish+0x54c>
    2ce6:	00 c0       	rjmp	.+0      	; 0x2ce8 <Modebus_receve_finish+0x556>
    2ce8:	00 00       	nop
    2cea:	60 e0       	ldi	r22, 0x00	; 0
    2cec:	70 e0       	ldi	r23, 0x00	; 0
    2cee:	80 e0       	ldi	r24, 0x00	; 0
    2cf0:	90 e0       	ldi	r25, 0x00	; 0
    2cf2:	df 91       	pop	r29
    2cf4:	cf 91       	pop	r28
    2cf6:	0c 94 59 09 	jmp	0x12b2	; 0x12b2 <Buzzer>
    2cfa:	fe 01       	movw	r30, r28
    2cfc:	eb 52       	subi	r30, 0x2B	; 43
    2cfe:	fb 4f       	sbci	r31, 0xFB	; 251
    2d00:	63 81       	ldd	r22, Z+3	; 0x03
    2d02:	ce 01       	movw	r24, r28
    2d04:	88 5f       	subi	r24, 0xF8	; 248
    2d06:	9f 4f       	sbci	r25, 0xFF	; 255
    2d08:	0e 94 2c 24 	call	0x4858	; 0x4858 <eeprom_write_byte>
    2d0c:	21 96       	adiw	r28, 0x01	; 1
    2d0e:	c8 30       	cpi	r28, 0x08	; 8
    2d10:	d1 05       	cpc	r29, r1
    2d12:	99 f7       	brne	.-26     	; 0x2cfa <Modebus_receve_finish+0x568>
    2d14:	78 94       	sei
    2d16:	88 e2       	ldi	r24, 0x28	; 40
    2d18:	80 93 8b 04 	sts	0x048B, r24	; 0x80048b <send_Modstr+0x1>
    2d1c:	10 92 8d 04 	sts	0x048D, r1	; 0x80048d <send_Modstr+0x3>
    2d20:	8d b7       	in	r24, 0x3d	; 61
    2d22:	9e b7       	in	r25, 0x3e	; 62
    2d24:	85 54       	subi	r24, 0x45	; 69
    2d26:	91 09       	sbc	r25, r1
    2d28:	0f b6       	in	r0, 0x3f	; 63
    2d2a:	f8 94       	cli
    2d2c:	9e bf       	out	0x3e, r25	; 62
    2d2e:	0f be       	out	0x3f, r0	; 63
    2d30:	8d bf       	out	0x3d, r24	; 61
    2d32:	ad b7       	in	r26, 0x3d	; 61
    2d34:	be b7       	in	r27, 0x3e	; 62
    2d36:	11 96       	adiw	r26, 0x01	; 1
    2d38:	85 e4       	ldi	r24, 0x45	; 69
    2d3a:	ea e8       	ldi	r30, 0x8A	; 138
    2d3c:	f4 e0       	ldi	r31, 0x04	; 4
    2d3e:	01 90       	ld	r0, Z+
    2d40:	0d 92       	st	X+, r0
    2d42:	8a 95       	dec	r24
    2d44:	e1 f7       	brne	.-8      	; 0x2d3e <Modebus_receve_finish+0x5ac>
    2d46:	0e 94 81 06 	call	0xd02	; 0xd02 <Reply_modbus>
    2d4a:	8d b7       	in	r24, 0x3d	; 61
    2d4c:	9e b7       	in	r25, 0x3e	; 62
    2d4e:	8b 5b       	subi	r24, 0xBB	; 187
    2d50:	9f 4f       	sbci	r25, 0xFF	; 255
    2d52:	0f b6       	in	r0, 0x3f	; 63
    2d54:	f8 94       	cli
    2d56:	9e bf       	out	0x3e, r25	; 62
    2d58:	0f be       	out	0x3f, r0	; 63
    2d5a:	8d bf       	out	0x3d, r24	; 61
    2d5c:	e5 c2       	rjmp	.+1482   	; 0x3328 <Modebus_receve_finish+0xb96>
    2d5e:	81 e0       	ldi	r24, 0x01	; 1
    2d60:	90 91 1d 04 	lds	r25, 0x041D	; 0x80041d <Game_on>
    2d64:	91 11       	cpse	r25, r1
    2d66:	01 c0       	rjmp	.+2      	; 0x2d6a <Modebus_receve_finish+0x5d8>
    2d68:	80 e0       	ldi	r24, 0x00	; 0
    2d6a:	90 91 b1 00 	lds	r25, 0x00B1	; 0x8000b1 <__TEXT_REGION_LENGTH__+0x7f80b1>
    2d6e:	91 11       	cpse	r25, r1
    2d70:	82 60       	ori	r24, 0x02	; 2
    2d72:	90 91 30 04 	lds	r25, 0x0430	; 0x800430 <user_instruction>
    2d76:	95 35       	cpi	r25, 0x55	; 85
    2d78:	11 f4       	brne	.+4      	; 0x2d7e <Modebus_receve_finish+0x5ec>
    2d7a:	80 68       	ori	r24, 0x80	; 128
    2d7c:	0b c0       	rjmp	.+22     	; 0x2d94 <Modebus_receve_finish+0x602>
    2d7e:	90 91 30 04 	lds	r25, 0x0430	; 0x800430 <user_instruction>
    2d82:	91 34       	cpi	r25, 0x41	; 65
    2d84:	11 f4       	brne	.+4      	; 0x2d8a <Modebus_receve_finish+0x5f8>
    2d86:	80 64       	ori	r24, 0x40	; 64
    2d88:	05 c0       	rjmp	.+10     	; 0x2d94 <Modebus_receve_finish+0x602>
    2d8a:	90 91 30 04 	lds	r25, 0x0430	; 0x800430 <user_instruction>
    2d8e:	92 34       	cpi	r25, 0x42	; 66
    2d90:	09 f4       	brne	.+2      	; 0x2d94 <Modebus_receve_finish+0x602>
    2d92:	80 62       	ori	r24, 0x20	; 32
    2d94:	90 91 76 04 	lds	r25, 0x0476	; 0x800476 <timer>
    2d98:	90 93 8d 04 	sts	0x048D, r25	; 0x80048d <send_Modstr+0x3>
    2d9c:	90 91 77 04 	lds	r25, 0x0477	; 0x800477 <timer+0x1>
    2da0:	90 93 8e 04 	sts	0x048E, r25	; 0x80048e <send_Modstr+0x4>
    2da4:	90 91 78 04 	lds	r25, 0x0478	; 0x800478 <timer+0x2>
    2da8:	90 93 8f 04 	sts	0x048F, r25	; 0x80048f <send_Modstr+0x5>
    2dac:	90 91 6f 04 	lds	r25, 0x046F	; 0x80046f <Score_home>
    2db0:	90 93 90 04 	sts	0x0490, r25	; 0x800490 <send_Modstr+0x6>
    2db4:	90 91 6e 04 	lds	r25, 0x046E	; 0x80046e <Score_guest>
    2db8:	90 93 91 04 	sts	0x0491, r25	; 0x800491 <send_Modstr+0x7>
    2dbc:	80 93 92 04 	sts	0x0492, r24	; 0x800492 <send_Modstr+0x8>
    2dc0:	86 e0       	ldi	r24, 0x06	; 6
    2dc2:	80 93 8c 04 	sts	0x048C, r24	; 0x80048c <send_Modstr+0x2>
    2dc6:	80 e2       	ldi	r24, 0x20	; 32
    2dc8:	80 93 8b 04 	sts	0x048B, r24	; 0x80048b <send_Modstr+0x1>
    2dcc:	8d b7       	in	r24, 0x3d	; 61
    2dce:	9e b7       	in	r25, 0x3e	; 62
    2dd0:	85 54       	subi	r24, 0x45	; 69
    2dd2:	91 09       	sbc	r25, r1
    2dd4:	0f b6       	in	r0, 0x3f	; 63
    2dd6:	f8 94       	cli
    2dd8:	9e bf       	out	0x3e, r25	; 62
    2dda:	0f be       	out	0x3f, r0	; 63
    2ddc:	8d bf       	out	0x3d, r24	; 61
    2dde:	ad b7       	in	r26, 0x3d	; 61
    2de0:	be b7       	in	r27, 0x3e	; 62
    2de2:	11 96       	adiw	r26, 0x01	; 1
    2de4:	85 e4       	ldi	r24, 0x45	; 69
    2de6:	ea e8       	ldi	r30, 0x8A	; 138
    2de8:	f4 e0       	ldi	r31, 0x04	; 4
    2dea:	01 90       	ld	r0, Z+
    2dec:	0d 92       	st	X+, r0
    2dee:	8a 95       	dec	r24
    2df0:	e1 f7       	brne	.-8      	; 0x2dea <Modebus_receve_finish+0x658>
    2df2:	0e 94 81 06 	call	0xd02	; 0xd02 <Reply_modbus>
    2df6:	8d b7       	in	r24, 0x3d	; 61
    2df8:	9e b7       	in	r25, 0x3e	; 62
    2dfa:	8b 5b       	subi	r24, 0xBB	; 187
    2dfc:	9f 4f       	sbci	r25, 0xFF	; 255
    2dfe:	0f b6       	in	r0, 0x3f	; 63
    2e00:	f8 94       	cli
    2e02:	9e bf       	out	0x3e, r25	; 62
    2e04:	0f be       	out	0x3f, r0	; 63
    2e06:	8d bf       	out	0x3d, r24	; 61
    2e08:	8f c2       	rjmp	.+1310   	; 0x3328 <Modebus_receve_finish+0xb96>
    2e0a:	80 91 1d 04 	lds	r24, 0x041D	; 0x80041d <Game_on>
    2e0e:	88 23       	and	r24, r24
    2e10:	09 f4       	brne	.+2      	; 0x2e14 <Modebus_receve_finish+0x682>
    2e12:	8a c2       	rjmp	.+1300   	; 0x3328 <Modebus_receve_finish+0xb96>
    2e14:	80 91 6f 04 	lds	r24, 0x046F	; 0x80046f <Score_home>
    2e18:	8f 5f       	subi	r24, 0xFF	; 255
    2e1a:	84 36       	cpi	r24, 0x64	; 100
    2e1c:	18 f4       	brcc	.+6      	; 0x2e24 <Modebus_receve_finish+0x692>
    2e1e:	80 93 6f 04 	sts	0x046F, r24	; 0x80046f <Score_home>
    2e22:	02 c0       	rjmp	.+4      	; 0x2e28 <Modebus_receve_finish+0x696>
    2e24:	10 92 6f 04 	sts	0x046F, r1	; 0x80046f <Score_home>
    2e28:	0e 94 c8 0a 	call	0x1590	; 0x1590 <update_score_display>
    2e2c:	0e 94 d2 08 	call	0x11a4	; 0x11a4 <timer_display>
    2e30:	81 e6       	ldi	r24, 0x61	; 97
    2e32:	80 93 8b 04 	sts	0x048B, r24	; 0x80048b <send_Modstr+0x1>
    2e36:	10 92 8d 04 	sts	0x048D, r1	; 0x80048d <send_Modstr+0x3>
    2e3a:	8d b7       	in	r24, 0x3d	; 61
    2e3c:	9e b7       	in	r25, 0x3e	; 62
    2e3e:	85 54       	subi	r24, 0x45	; 69
    2e40:	91 09       	sbc	r25, r1
    2e42:	0f b6       	in	r0, 0x3f	; 63
    2e44:	f8 94       	cli
    2e46:	9e bf       	out	0x3e, r25	; 62
    2e48:	0f be       	out	0x3f, r0	; 63
    2e4a:	8d bf       	out	0x3d, r24	; 61
    2e4c:	ad b7       	in	r26, 0x3d	; 61
    2e4e:	be b7       	in	r27, 0x3e	; 62
    2e50:	11 96       	adiw	r26, 0x01	; 1
    2e52:	85 e4       	ldi	r24, 0x45	; 69
    2e54:	ea e8       	ldi	r30, 0x8A	; 138
    2e56:	f4 e0       	ldi	r31, 0x04	; 4
    2e58:	01 90       	ld	r0, Z+
    2e5a:	0d 92       	st	X+, r0
    2e5c:	8a 95       	dec	r24
    2e5e:	e1 f7       	brne	.-8      	; 0x2e58 <Modebus_receve_finish+0x6c6>
    2e60:	0e 94 81 06 	call	0xd02	; 0xd02 <Reply_modbus>
    2e64:	8d b7       	in	r24, 0x3d	; 61
    2e66:	9e b7       	in	r25, 0x3e	; 62
    2e68:	8b 5b       	subi	r24, 0xBB	; 187
    2e6a:	9f 4f       	sbci	r25, 0xFF	; 255
    2e6c:	0f b6       	in	r0, 0x3f	; 63
    2e6e:	f8 94       	cli
    2e70:	9e bf       	out	0x3e, r25	; 62
    2e72:	0f be       	out	0x3f, r0	; 63
    2e74:	8d bf       	out	0x3d, r24	; 61
    2e76:	58 c2       	rjmp	.+1200   	; 0x3328 <Modebus_receve_finish+0xb96>
    2e78:	80 91 1d 04 	lds	r24, 0x041D	; 0x80041d <Game_on>
    2e7c:	88 23       	and	r24, r24
    2e7e:	09 f4       	brne	.+2      	; 0x2e82 <Modebus_receve_finish+0x6f0>
    2e80:	53 c2       	rjmp	.+1190   	; 0x3328 <Modebus_receve_finish+0xb96>
    2e82:	80 91 6f 04 	lds	r24, 0x046F	; 0x80046f <Score_home>
    2e86:	81 50       	subi	r24, 0x01	; 1
    2e88:	84 36       	cpi	r24, 0x64	; 100
    2e8a:	08 f0       	brcs	.+2      	; 0x2e8e <Modebus_receve_finish+0x6fc>
    2e8c:	83 e6       	ldi	r24, 0x63	; 99
    2e8e:	80 93 6f 04 	sts	0x046F, r24	; 0x80046f <Score_home>
    2e92:	0e 94 c8 0a 	call	0x1590	; 0x1590 <update_score_display>
    2e96:	0e 94 d2 08 	call	0x11a4	; 0x11a4 <timer_display>
    2e9a:	82 e6       	ldi	r24, 0x62	; 98
    2e9c:	80 93 8b 04 	sts	0x048B, r24	; 0x80048b <send_Modstr+0x1>
    2ea0:	10 92 8d 04 	sts	0x048D, r1	; 0x80048d <send_Modstr+0x3>
    2ea4:	8d b7       	in	r24, 0x3d	; 61
    2ea6:	9e b7       	in	r25, 0x3e	; 62
    2ea8:	85 54       	subi	r24, 0x45	; 69
    2eaa:	91 09       	sbc	r25, r1
    2eac:	0f b6       	in	r0, 0x3f	; 63
    2eae:	f8 94       	cli
    2eb0:	9e bf       	out	0x3e, r25	; 62
    2eb2:	0f be       	out	0x3f, r0	; 63
    2eb4:	8d bf       	out	0x3d, r24	; 61
    2eb6:	ad b7       	in	r26, 0x3d	; 61
    2eb8:	be b7       	in	r27, 0x3e	; 62
    2eba:	11 96       	adiw	r26, 0x01	; 1
    2ebc:	85 e4       	ldi	r24, 0x45	; 69
    2ebe:	ea e8       	ldi	r30, 0x8A	; 138
    2ec0:	f4 e0       	ldi	r31, 0x04	; 4
    2ec2:	01 90       	ld	r0, Z+
    2ec4:	0d 92       	st	X+, r0
    2ec6:	8a 95       	dec	r24
    2ec8:	e1 f7       	brne	.-8      	; 0x2ec2 <Modebus_receve_finish+0x730>
    2eca:	0e 94 81 06 	call	0xd02	; 0xd02 <Reply_modbus>
    2ece:	8d b7       	in	r24, 0x3d	; 61
    2ed0:	9e b7       	in	r25, 0x3e	; 62
    2ed2:	8b 5b       	subi	r24, 0xBB	; 187
    2ed4:	9f 4f       	sbci	r25, 0xFF	; 255
    2ed6:	0f b6       	in	r0, 0x3f	; 63
    2ed8:	f8 94       	cli
    2eda:	9e bf       	out	0x3e, r25	; 62
    2edc:	0f be       	out	0x3f, r0	; 63
    2ede:	8d bf       	out	0x3d, r24	; 61
    2ee0:	23 c2       	rjmp	.+1094   	; 0x3328 <Modebus_receve_finish+0xb96>
    2ee2:	80 91 1d 04 	lds	r24, 0x041D	; 0x80041d <Game_on>
    2ee6:	88 23       	and	r24, r24
    2ee8:	09 f4       	brne	.+2      	; 0x2eec <Modebus_receve_finish+0x75a>
    2eea:	1e c2       	rjmp	.+1084   	; 0x3328 <Modebus_receve_finish+0xb96>
    2eec:	80 91 6e 04 	lds	r24, 0x046E	; 0x80046e <Score_guest>
    2ef0:	8f 5f       	subi	r24, 0xFF	; 255
    2ef2:	84 36       	cpi	r24, 0x64	; 100
    2ef4:	18 f4       	brcc	.+6      	; 0x2efc <Modebus_receve_finish+0x76a>
    2ef6:	80 93 6e 04 	sts	0x046E, r24	; 0x80046e <Score_guest>
    2efa:	02 c0       	rjmp	.+4      	; 0x2f00 <Modebus_receve_finish+0x76e>
    2efc:	10 92 6e 04 	sts	0x046E, r1	; 0x80046e <Score_guest>
    2f00:	0e 94 c8 0a 	call	0x1590	; 0x1590 <update_score_display>
    2f04:	0e 94 d2 08 	call	0x11a4	; 0x11a4 <timer_display>
    2f08:	83 e6       	ldi	r24, 0x63	; 99
    2f0a:	80 93 8b 04 	sts	0x048B, r24	; 0x80048b <send_Modstr+0x1>
    2f0e:	10 92 8d 04 	sts	0x048D, r1	; 0x80048d <send_Modstr+0x3>
    2f12:	8d b7       	in	r24, 0x3d	; 61
    2f14:	9e b7       	in	r25, 0x3e	; 62
    2f16:	85 54       	subi	r24, 0x45	; 69
    2f18:	91 09       	sbc	r25, r1
    2f1a:	0f b6       	in	r0, 0x3f	; 63
    2f1c:	f8 94       	cli
    2f1e:	9e bf       	out	0x3e, r25	; 62
    2f20:	0f be       	out	0x3f, r0	; 63
    2f22:	8d bf       	out	0x3d, r24	; 61
    2f24:	ad b7       	in	r26, 0x3d	; 61
    2f26:	be b7       	in	r27, 0x3e	; 62
    2f28:	11 96       	adiw	r26, 0x01	; 1
    2f2a:	85 e4       	ldi	r24, 0x45	; 69
    2f2c:	ea e8       	ldi	r30, 0x8A	; 138
    2f2e:	f4 e0       	ldi	r31, 0x04	; 4
    2f30:	01 90       	ld	r0, Z+
    2f32:	0d 92       	st	X+, r0
    2f34:	8a 95       	dec	r24
    2f36:	e1 f7       	brne	.-8      	; 0x2f30 <Modebus_receve_finish+0x79e>
    2f38:	0e 94 81 06 	call	0xd02	; 0xd02 <Reply_modbus>
    2f3c:	8d b7       	in	r24, 0x3d	; 61
    2f3e:	9e b7       	in	r25, 0x3e	; 62
    2f40:	8b 5b       	subi	r24, 0xBB	; 187
    2f42:	9f 4f       	sbci	r25, 0xFF	; 255
    2f44:	0f b6       	in	r0, 0x3f	; 63
    2f46:	f8 94       	cli
    2f48:	9e bf       	out	0x3e, r25	; 62
    2f4a:	0f be       	out	0x3f, r0	; 63
    2f4c:	8d bf       	out	0x3d, r24	; 61
    2f4e:	ec c1       	rjmp	.+984    	; 0x3328 <Modebus_receve_finish+0xb96>
    2f50:	80 91 1d 04 	lds	r24, 0x041D	; 0x80041d <Game_on>
    2f54:	88 23       	and	r24, r24
    2f56:	09 f4       	brne	.+2      	; 0x2f5a <Modebus_receve_finish+0x7c8>
    2f58:	e7 c1       	rjmp	.+974    	; 0x3328 <Modebus_receve_finish+0xb96>
    2f5a:	80 91 6e 04 	lds	r24, 0x046E	; 0x80046e <Score_guest>
    2f5e:	81 50       	subi	r24, 0x01	; 1
    2f60:	84 36       	cpi	r24, 0x64	; 100
    2f62:	08 f0       	brcs	.+2      	; 0x2f66 <Modebus_receve_finish+0x7d4>
    2f64:	83 e6       	ldi	r24, 0x63	; 99
    2f66:	80 93 6e 04 	sts	0x046E, r24	; 0x80046e <Score_guest>
    2f6a:	0e 94 c8 0a 	call	0x1590	; 0x1590 <update_score_display>
    2f6e:	0e 94 d2 08 	call	0x11a4	; 0x11a4 <timer_display>
    2f72:	84 e6       	ldi	r24, 0x64	; 100
    2f74:	80 93 8b 04 	sts	0x048B, r24	; 0x80048b <send_Modstr+0x1>
    2f78:	10 92 8d 04 	sts	0x048D, r1	; 0x80048d <send_Modstr+0x3>
    2f7c:	8d b7       	in	r24, 0x3d	; 61
    2f7e:	9e b7       	in	r25, 0x3e	; 62
    2f80:	85 54       	subi	r24, 0x45	; 69
    2f82:	91 09       	sbc	r25, r1
    2f84:	0f b6       	in	r0, 0x3f	; 63
    2f86:	f8 94       	cli
    2f88:	9e bf       	out	0x3e, r25	; 62
    2f8a:	0f be       	out	0x3f, r0	; 63
    2f8c:	8d bf       	out	0x3d, r24	; 61
    2f8e:	ad b7       	in	r26, 0x3d	; 61
    2f90:	be b7       	in	r27, 0x3e	; 62
    2f92:	11 96       	adiw	r26, 0x01	; 1
    2f94:	85 e4       	ldi	r24, 0x45	; 69
    2f96:	ea e8       	ldi	r30, 0x8A	; 138
    2f98:	f4 e0       	ldi	r31, 0x04	; 4
    2f9a:	01 90       	ld	r0, Z+
    2f9c:	0d 92       	st	X+, r0
    2f9e:	8a 95       	dec	r24
    2fa0:	e1 f7       	brne	.-8      	; 0x2f9a <Modebus_receve_finish+0x808>
    2fa2:	0e 94 81 06 	call	0xd02	; 0xd02 <Reply_modbus>
    2fa6:	8d b7       	in	r24, 0x3d	; 61
    2fa8:	9e b7       	in	r25, 0x3e	; 62
    2faa:	8b 5b       	subi	r24, 0xBB	; 187
    2fac:	9f 4f       	sbci	r25, 0xFF	; 255
    2fae:	0f b6       	in	r0, 0x3f	; 63
    2fb0:	f8 94       	cli
    2fb2:	9e bf       	out	0x3e, r25	; 62
    2fb4:	0f be       	out	0x3f, r0	; 63
    2fb6:	8d bf       	out	0x3d, r24	; 61
    2fb8:	b7 c1       	rjmp	.+878    	; 0x3328 <Modebus_receve_finish+0xb96>
    2fba:	80 91 1d 04 	lds	r24, 0x041D	; 0x80041d <Game_on>
    2fbe:	88 23       	and	r24, r24
    2fc0:	09 f4       	brne	.+2      	; 0x2fc4 <Modebus_receve_finish+0x832>
    2fc2:	b2 c1       	rjmp	.+868    	; 0x3328 <Modebus_receve_finish+0xb96>
    2fc4:	80 91 d8 04 	lds	r24, 0x04D8	; 0x8004d8 <Read_Modstr+0x3>
    2fc8:	80 93 6f 04 	sts	0x046F, r24	; 0x80046f <Score_home>
    2fcc:	80 91 d9 04 	lds	r24, 0x04D9	; 0x8004d9 <Read_Modstr+0x4>
    2fd0:	80 93 6e 04 	sts	0x046E, r24	; 0x80046e <Score_guest>
    2fd4:	0e 94 c8 0a 	call	0x1590	; 0x1590 <update_score_display>
    2fd8:	0e 94 d2 08 	call	0x11a4	; 0x11a4 <timer_display>
    2fdc:	c0 93 8b 04 	sts	0x048B, r28	; 0x80048b <send_Modstr+0x1>
    2fe0:	10 92 8d 04 	sts	0x048D, r1	; 0x80048d <send_Modstr+0x3>
    2fe4:	8d b7       	in	r24, 0x3d	; 61
    2fe6:	9e b7       	in	r25, 0x3e	; 62
    2fe8:	85 54       	subi	r24, 0x45	; 69
    2fea:	91 09       	sbc	r25, r1
    2fec:	0f b6       	in	r0, 0x3f	; 63
    2fee:	f8 94       	cli
    2ff0:	9e bf       	out	0x3e, r25	; 62
    2ff2:	0f be       	out	0x3f, r0	; 63
    2ff4:	8d bf       	out	0x3d, r24	; 61
    2ff6:	ad b7       	in	r26, 0x3d	; 61
    2ff8:	be b7       	in	r27, 0x3e	; 62
    2ffa:	11 96       	adiw	r26, 0x01	; 1
    2ffc:	85 e4       	ldi	r24, 0x45	; 69
    2ffe:	ea e8       	ldi	r30, 0x8A	; 138
    3000:	f4 e0       	ldi	r31, 0x04	; 4
    3002:	01 90       	ld	r0, Z+
    3004:	0d 92       	st	X+, r0
    3006:	8a 95       	dec	r24
    3008:	e1 f7       	brne	.-8      	; 0x3002 <Modebus_receve_finish+0x870>
    300a:	0e 94 81 06 	call	0xd02	; 0xd02 <Reply_modbus>
    300e:	8d b7       	in	r24, 0x3d	; 61
    3010:	9e b7       	in	r25, 0x3e	; 62
    3012:	8b 5b       	subi	r24, 0xBB	; 187
    3014:	9f 4f       	sbci	r25, 0xFF	; 255
    3016:	0f b6       	in	r0, 0x3f	; 63
    3018:	f8 94       	cli
    301a:	9e bf       	out	0x3e, r25	; 62
    301c:	0f be       	out	0x3f, r0	; 63
    301e:	8d bf       	out	0x3d, r24	; 61
    3020:	83 c1       	rjmp	.+774    	; 0x3328 <Modebus_receve_finish+0xb96>
    3022:	80 91 1d 04 	lds	r24, 0x041D	; 0x80041d <Game_on>
    3026:	88 23       	and	r24, r24
    3028:	09 f4       	brne	.+2      	; 0x302c <Modebus_receve_finish+0x89a>
    302a:	7e c1       	rjmp	.+764    	; 0x3328 <Modebus_receve_finish+0xb96>
    302c:	80 91 87 04 	lds	r24, 0x0487	; 0x800487 <display_out_buf+0x8>
    3030:	8f 5f       	subi	r24, 0xFF	; 255
    3032:	8a 30       	cpi	r24, 0x0A	; 10
    3034:	18 f4       	brcc	.+6      	; 0x303c <Modebus_receve_finish+0x8aa>
    3036:	80 93 87 04 	sts	0x0487, r24	; 0x800487 <display_out_buf+0x8>
    303a:	02 c0       	rjmp	.+4      	; 0x3040 <Modebus_receve_finish+0x8ae>
    303c:	10 92 87 04 	sts	0x0487, r1	; 0x800487 <display_out_buf+0x8>
    3040:	0e 94 84 07 	call	0xf08	; 0xf08 <Display_Out>
    3044:	85 e6       	ldi	r24, 0x65	; 101
    3046:	80 93 8b 04 	sts	0x048B, r24	; 0x80048b <send_Modstr+0x1>
    304a:	10 92 8d 04 	sts	0x048D, r1	; 0x80048d <send_Modstr+0x3>
    304e:	8d b7       	in	r24, 0x3d	; 61
    3050:	9e b7       	in	r25, 0x3e	; 62
    3052:	85 54       	subi	r24, 0x45	; 69
    3054:	91 09       	sbc	r25, r1
    3056:	0f b6       	in	r0, 0x3f	; 63
    3058:	f8 94       	cli
    305a:	9e bf       	out	0x3e, r25	; 62
    305c:	0f be       	out	0x3f, r0	; 63
    305e:	8d bf       	out	0x3d, r24	; 61
    3060:	ad b7       	in	r26, 0x3d	; 61
    3062:	be b7       	in	r27, 0x3e	; 62
    3064:	11 96       	adiw	r26, 0x01	; 1
    3066:	85 e4       	ldi	r24, 0x45	; 69
    3068:	ea e8       	ldi	r30, 0x8A	; 138
    306a:	f4 e0       	ldi	r31, 0x04	; 4
    306c:	01 90       	ld	r0, Z+
    306e:	0d 92       	st	X+, r0
    3070:	8a 95       	dec	r24
    3072:	e1 f7       	brne	.-8      	; 0x306c <Modebus_receve_finish+0x8da>
    3074:	0e 94 81 06 	call	0xd02	; 0xd02 <Reply_modbus>
    3078:	8d b7       	in	r24, 0x3d	; 61
    307a:	9e b7       	in	r25, 0x3e	; 62
    307c:	8b 5b       	subi	r24, 0xBB	; 187
    307e:	9f 4f       	sbci	r25, 0xFF	; 255
    3080:	0f b6       	in	r0, 0x3f	; 63
    3082:	f8 94       	cli
    3084:	9e bf       	out	0x3e, r25	; 62
    3086:	0f be       	out	0x3f, r0	; 63
    3088:	8d bf       	out	0x3d, r24	; 61
    308a:	4e c1       	rjmp	.+668    	; 0x3328 <Modebus_receve_finish+0xb96>
    308c:	80 91 1d 04 	lds	r24, 0x041D	; 0x80041d <Game_on>
    3090:	88 23       	and	r24, r24
    3092:	09 f4       	brne	.+2      	; 0x3096 <Modebus_receve_finish+0x904>
    3094:	49 c1       	rjmp	.+658    	; 0x3328 <Modebus_receve_finish+0xb96>
    3096:	80 91 88 04 	lds	r24, 0x0488	; 0x800488 <display_out_buf+0x9>
    309a:	8f 5f       	subi	r24, 0xFF	; 255
    309c:	8a 30       	cpi	r24, 0x0A	; 10
    309e:	18 f4       	brcc	.+6      	; 0x30a6 <Modebus_receve_finish+0x914>
    30a0:	80 93 88 04 	sts	0x0488, r24	; 0x800488 <display_out_buf+0x9>
    30a4:	02 c0       	rjmp	.+4      	; 0x30aa <Modebus_receve_finish+0x918>
    30a6:	10 92 88 04 	sts	0x0488, r1	; 0x800488 <display_out_buf+0x9>
    30aa:	0e 94 84 07 	call	0xf08	; 0xf08 <Display_Out>
    30ae:	86 e6       	ldi	r24, 0x66	; 102
    30b0:	80 93 8b 04 	sts	0x048B, r24	; 0x80048b <send_Modstr+0x1>
    30b4:	10 92 8d 04 	sts	0x048D, r1	; 0x80048d <send_Modstr+0x3>
    30b8:	8d b7       	in	r24, 0x3d	; 61
    30ba:	9e b7       	in	r25, 0x3e	; 62
    30bc:	85 54       	subi	r24, 0x45	; 69
    30be:	91 09       	sbc	r25, r1
    30c0:	0f b6       	in	r0, 0x3f	; 63
    30c2:	f8 94       	cli
    30c4:	9e bf       	out	0x3e, r25	; 62
    30c6:	0f be       	out	0x3f, r0	; 63
    30c8:	8d bf       	out	0x3d, r24	; 61
    30ca:	ad b7       	in	r26, 0x3d	; 61
    30cc:	be b7       	in	r27, 0x3e	; 62
    30ce:	11 96       	adiw	r26, 0x01	; 1
    30d0:	85 e4       	ldi	r24, 0x45	; 69
    30d2:	ea e8       	ldi	r30, 0x8A	; 138
    30d4:	f4 e0       	ldi	r31, 0x04	; 4
    30d6:	01 90       	ld	r0, Z+
    30d8:	0d 92       	st	X+, r0
    30da:	8a 95       	dec	r24
    30dc:	e1 f7       	brne	.-8      	; 0x30d6 <Modebus_receve_finish+0x944>
    30de:	0e 94 81 06 	call	0xd02	; 0xd02 <Reply_modbus>
    30e2:	8d b7       	in	r24, 0x3d	; 61
    30e4:	9e b7       	in	r25, 0x3e	; 62
    30e6:	8b 5b       	subi	r24, 0xBB	; 187
    30e8:	9f 4f       	sbci	r25, 0xFF	; 255
    30ea:	0f b6       	in	r0, 0x3f	; 63
    30ec:	f8 94       	cli
    30ee:	9e bf       	out	0x3e, r25	; 62
    30f0:	0f be       	out	0x3f, r0	; 63
    30f2:	8d bf       	out	0x3d, r24	; 61
    30f4:	19 c1       	rjmp	.+562    	; 0x3328 <Modebus_receve_finish+0xb96>
    30f6:	80 91 1d 04 	lds	r24, 0x041D	; 0x80041d <Game_on>
    30fa:	88 23       	and	r24, r24
    30fc:	09 f4       	brne	.+2      	; 0x3100 <Modebus_receve_finish+0x96e>
    30fe:	14 c1       	rjmp	.+552    	; 0x3328 <Modebus_receve_finish+0xb96>
    3100:	80 91 89 04 	lds	r24, 0x0489	; 0x800489 <display_out_buf+0xa>
    3104:	8f 5f       	subi	r24, 0xFF	; 255
    3106:	8a 30       	cpi	r24, 0x0A	; 10
    3108:	18 f4       	brcc	.+6      	; 0x3110 <Modebus_receve_finish+0x97e>
    310a:	80 93 89 04 	sts	0x0489, r24	; 0x800489 <display_out_buf+0xa>
    310e:	02 c0       	rjmp	.+4      	; 0x3114 <Modebus_receve_finish+0x982>
    3110:	10 92 89 04 	sts	0x0489, r1	; 0x800489 <display_out_buf+0xa>
    3114:	0e 94 84 07 	call	0xf08	; 0xf08 <Display_Out>
    3118:	87 e6       	ldi	r24, 0x67	; 103
    311a:	80 93 8b 04 	sts	0x048B, r24	; 0x80048b <send_Modstr+0x1>
    311e:	10 92 8d 04 	sts	0x048D, r1	; 0x80048d <send_Modstr+0x3>
    3122:	8d b7       	in	r24, 0x3d	; 61
    3124:	9e b7       	in	r25, 0x3e	; 62
    3126:	85 54       	subi	r24, 0x45	; 69
    3128:	91 09       	sbc	r25, r1
    312a:	0f b6       	in	r0, 0x3f	; 63
    312c:	f8 94       	cli
    312e:	9e bf       	out	0x3e, r25	; 62
    3130:	0f be       	out	0x3f, r0	; 63
    3132:	8d bf       	out	0x3d, r24	; 61
    3134:	ad b7       	in	r26, 0x3d	; 61
    3136:	be b7       	in	r27, 0x3e	; 62
    3138:	11 96       	adiw	r26, 0x01	; 1
    313a:	85 e4       	ldi	r24, 0x45	; 69
    313c:	ea e8       	ldi	r30, 0x8A	; 138
    313e:	f4 e0       	ldi	r31, 0x04	; 4
    3140:	01 90       	ld	r0, Z+
    3142:	0d 92       	st	X+, r0
    3144:	8a 95       	dec	r24
    3146:	e1 f7       	brne	.-8      	; 0x3140 <Modebus_receve_finish+0x9ae>
    3148:	0e 94 81 06 	call	0xd02	; 0xd02 <Reply_modbus>
    314c:	8d b7       	in	r24, 0x3d	; 61
    314e:	9e b7       	in	r25, 0x3e	; 62
    3150:	8b 5b       	subi	r24, 0xBB	; 187
    3152:	9f 4f       	sbci	r25, 0xFF	; 255
    3154:	0f b6       	in	r0, 0x3f	; 63
    3156:	f8 94       	cli
    3158:	9e bf       	out	0x3e, r25	; 62
    315a:	0f be       	out	0x3f, r0	; 63
    315c:	8d bf       	out	0x3d, r24	; 61
    315e:	e4 c0       	rjmp	.+456    	; 0x3328 <Modebus_receve_finish+0xb96>
    3160:	80 91 1d 04 	lds	r24, 0x041D	; 0x80041d <Game_on>
    3164:	88 23       	and	r24, r24
    3166:	09 f4       	brne	.+2      	; 0x316a <Modebus_receve_finish+0x9d8>
    3168:	df c0       	rjmp	.+446    	; 0x3328 <Modebus_receve_finish+0xb96>
    316a:	80 91 d8 04 	lds	r24, 0x04D8	; 0x8004d8 <Read_Modstr+0x3>
    316e:	80 93 76 04 	sts	0x0476, r24	; 0x800476 <timer>
    3172:	80 91 d9 04 	lds	r24, 0x04D9	; 0x8004d9 <Read_Modstr+0x4>
    3176:	80 93 77 04 	sts	0x0477, r24	; 0x800477 <timer+0x1>
    317a:	80 91 da 04 	lds	r24, 0x04DA	; 0x8004da <Read_Modstr+0x5>
    317e:	80 93 78 04 	sts	0x0478, r24	; 0x800478 <timer+0x2>
    3182:	10 92 b2 00 	sts	0x00B2, r1	; 0x8000b2 <__TEXT_REGION_LENGTH__+0x7f80b2>
    3186:	0e 94 d2 08 	call	0x11a4	; 0x11a4 <timer_display>
    318a:	84 e2       	ldi	r24, 0x24	; 36
    318c:	80 93 8b 04 	sts	0x048B, r24	; 0x80048b <send_Modstr+0x1>
    3190:	10 92 8d 04 	sts	0x048D, r1	; 0x80048d <send_Modstr+0x3>
    3194:	8d b7       	in	r24, 0x3d	; 61
    3196:	9e b7       	in	r25, 0x3e	; 62
    3198:	85 54       	subi	r24, 0x45	; 69
    319a:	91 09       	sbc	r25, r1
    319c:	0f b6       	in	r0, 0x3f	; 63
    319e:	f8 94       	cli
    31a0:	9e bf       	out	0x3e, r25	; 62
    31a2:	0f be       	out	0x3f, r0	; 63
    31a4:	8d bf       	out	0x3d, r24	; 61
    31a6:	ad b7       	in	r26, 0x3d	; 61
    31a8:	be b7       	in	r27, 0x3e	; 62
    31aa:	11 96       	adiw	r26, 0x01	; 1
    31ac:	85 e4       	ldi	r24, 0x45	; 69
    31ae:	ea e8       	ldi	r30, 0x8A	; 138
    31b0:	f4 e0       	ldi	r31, 0x04	; 4
    31b2:	01 90       	ld	r0, Z+
    31b4:	0d 92       	st	X+, r0
    31b6:	8a 95       	dec	r24
    31b8:	e1 f7       	brne	.-8      	; 0x31b2 <Modebus_receve_finish+0xa20>
    31ba:	0e 94 81 06 	call	0xd02	; 0xd02 <Reply_modbus>
    31be:	8d b7       	in	r24, 0x3d	; 61
    31c0:	9e b7       	in	r25, 0x3e	; 62
    31c2:	8b 5b       	subi	r24, 0xBB	; 187
    31c4:	9f 4f       	sbci	r25, 0xFF	; 255
    31c6:	0f b6       	in	r0, 0x3f	; 63
    31c8:	f8 94       	cli
    31ca:	9e bf       	out	0x3e, r25	; 62
    31cc:	0f be       	out	0x3f, r0	; 63
    31ce:	8d bf       	out	0x3d, r24	; 61
    31d0:	ab c0       	rjmp	.+342    	; 0x3328 <Modebus_receve_finish+0xb96>
    31d2:	f8 94       	cli
    31d4:	c0 e0       	ldi	r28, 0x00	; 0
    31d6:	d0 e0       	ldi	r29, 0x00	; 0
    31d8:	ce 01       	movw	r24, r28
    31da:	80 50       	subi	r24, 0x00	; 0
    31dc:	90 40       	sbci	r25, 0x00	; 0
    31de:	0e 94 24 24 	call	0x4848	; 0x4848 <eeprom_read_byte>
    31e2:	fe 01       	movw	r30, r28
    31e4:	e6 57       	subi	r30, 0x76	; 118
    31e6:	fb 4f       	sbci	r31, 0xFB	; 251
    31e8:	83 83       	std	Z+3, r24	; 0x03
    31ea:	21 96       	adiw	r28, 0x01	; 1
    31ec:	c8 30       	cpi	r28, 0x08	; 8
    31ee:	d1 05       	cpc	r29, r1
    31f0:	99 f7       	brne	.-26     	; 0x31d8 <Modebus_receve_finish+0xa46>
    31f2:	78 94       	sei
    31f4:	88 e0       	ldi	r24, 0x08	; 8
    31f6:	80 93 8c 04 	sts	0x048C, r24	; 0x80048c <send_Modstr+0x2>
    31fa:	85 e2       	ldi	r24, 0x25	; 37
    31fc:	80 93 8b 04 	sts	0x048B, r24	; 0x80048b <send_Modstr+0x1>
    3200:	8d b7       	in	r24, 0x3d	; 61
    3202:	9e b7       	in	r25, 0x3e	; 62
    3204:	85 54       	subi	r24, 0x45	; 69
    3206:	91 09       	sbc	r25, r1
    3208:	0f b6       	in	r0, 0x3f	; 63
    320a:	f8 94       	cli
    320c:	9e bf       	out	0x3e, r25	; 62
    320e:	0f be       	out	0x3f, r0	; 63
    3210:	8d bf       	out	0x3d, r24	; 61
    3212:	ad b7       	in	r26, 0x3d	; 61
    3214:	be b7       	in	r27, 0x3e	; 62
    3216:	11 96       	adiw	r26, 0x01	; 1
    3218:	85 e4       	ldi	r24, 0x45	; 69
    321a:	ea e8       	ldi	r30, 0x8A	; 138
    321c:	f4 e0       	ldi	r31, 0x04	; 4
    321e:	01 90       	ld	r0, Z+
    3220:	0d 92       	st	X+, r0
    3222:	8a 95       	dec	r24
    3224:	e1 f7       	brne	.-8      	; 0x321e <Modebus_receve_finish+0xa8c>
    3226:	0e 94 81 06 	call	0xd02	; 0xd02 <Reply_modbus>
    322a:	8d b7       	in	r24, 0x3d	; 61
    322c:	9e b7       	in	r25, 0x3e	; 62
    322e:	8b 5b       	subi	r24, 0xBB	; 187
    3230:	9f 4f       	sbci	r25, 0xFF	; 255
    3232:	0f b6       	in	r0, 0x3f	; 63
    3234:	f8 94       	cli
    3236:	9e bf       	out	0x3e, r25	; 62
    3238:	0f be       	out	0x3f, r0	; 63
    323a:	8d bf       	out	0x3d, r24	; 61
    323c:	75 c0       	rjmp	.+234    	; 0x3328 <Modebus_receve_finish+0xb96>
    323e:	f8 94       	cli
    3240:	c0 e0       	ldi	r28, 0x00	; 0
    3242:	d0 e0       	ldi	r29, 0x00	; 0
    3244:	ce 01       	movw	r24, r28
    3246:	88 5f       	subi	r24, 0xF8	; 248
    3248:	9f 4f       	sbci	r25, 0xFF	; 255
    324a:	0e 94 24 24 	call	0x4848	; 0x4848 <eeprom_read_byte>
    324e:	fe 01       	movw	r30, r28
    3250:	e6 57       	subi	r30, 0x76	; 118
    3252:	fb 4f       	sbci	r31, 0xFB	; 251
    3254:	83 83       	std	Z+3, r24	; 0x03
    3256:	21 96       	adiw	r28, 0x01	; 1
    3258:	c8 30       	cpi	r28, 0x08	; 8
    325a:	d1 05       	cpc	r29, r1
    325c:	99 f7       	brne	.-26     	; 0x3244 <Modebus_receve_finish+0xab2>
    325e:	78 94       	sei
    3260:	88 e0       	ldi	r24, 0x08	; 8
    3262:	80 93 8c 04 	sts	0x048C, r24	; 0x80048c <send_Modstr+0x2>
    3266:	86 e2       	ldi	r24, 0x26	; 38
    3268:	80 93 8b 04 	sts	0x048B, r24	; 0x80048b <send_Modstr+0x1>
    326c:	8d b7       	in	r24, 0x3d	; 61
    326e:	9e b7       	in	r25, 0x3e	; 62
    3270:	85 54       	subi	r24, 0x45	; 69
    3272:	91 09       	sbc	r25, r1
    3274:	0f b6       	in	r0, 0x3f	; 63
    3276:	f8 94       	cli
    3278:	9e bf       	out	0x3e, r25	; 62
    327a:	0f be       	out	0x3f, r0	; 63
    327c:	8d bf       	out	0x3d, r24	; 61
    327e:	ad b7       	in	r26, 0x3d	; 61
    3280:	be b7       	in	r27, 0x3e	; 62
    3282:	11 96       	adiw	r26, 0x01	; 1
    3284:	85 e4       	ldi	r24, 0x45	; 69
    3286:	ea e8       	ldi	r30, 0x8A	; 138
    3288:	f4 e0       	ldi	r31, 0x04	; 4
    328a:	01 90       	ld	r0, Z+
    328c:	0d 92       	st	X+, r0
    328e:	8a 95       	dec	r24
    3290:	e1 f7       	brne	.-8      	; 0x328a <Modebus_receve_finish+0xaf8>
    3292:	0e 94 81 06 	call	0xd02	; 0xd02 <Reply_modbus>
    3296:	8d b7       	in	r24, 0x3d	; 61
    3298:	9e b7       	in	r25, 0x3e	; 62
    329a:	8b 5b       	subi	r24, 0xBB	; 187
    329c:	9f 4f       	sbci	r25, 0xFF	; 255
    329e:	0f b6       	in	r0, 0x3f	; 63
    32a0:	f8 94       	cli
    32a2:	9e bf       	out	0x3e, r25	; 62
    32a4:	0f be       	out	0x3f, r0	; 63
    32a6:	8d bf       	out	0x3d, r24	; 61
    32a8:	3f c0       	rjmp	.+126    	; 0x3328 <Modebus_receve_finish+0xb96>
    32aa:	f8 94       	cli
    32ac:	c0 e0       	ldi	r28, 0x00	; 0
    32ae:	d0 e0       	ldi	r29, 0x00	; 0
    32b0:	fe 01       	movw	r30, r28
    32b2:	eb 52       	subi	r30, 0x2B	; 43
    32b4:	fb 4f       	sbci	r31, 0xFB	; 251
    32b6:	63 81       	ldd	r22, Z+3	; 0x03
    32b8:	ce 01       	movw	r24, r28
    32ba:	80 50       	subi	r24, 0x00	; 0
    32bc:	90 40       	sbci	r25, 0x00	; 0
    32be:	0e 94 2c 24 	call	0x4858	; 0x4858 <eeprom_write_byte>
    32c2:	21 96       	adiw	r28, 0x01	; 1
    32c4:	c8 30       	cpi	r28, 0x08	; 8
    32c6:	d1 05       	cpc	r29, r1
    32c8:	99 f7       	brne	.-26     	; 0x32b0 <Modebus_receve_finish+0xb1e>
    32ca:	78 94       	sei
    32cc:	87 e2       	ldi	r24, 0x27	; 39
    32ce:	80 93 8b 04 	sts	0x048B, r24	; 0x80048b <send_Modstr+0x1>
    32d2:	10 92 8d 04 	sts	0x048D, r1	; 0x80048d <send_Modstr+0x3>
    32d6:	8d b7       	in	r24, 0x3d	; 61
    32d8:	9e b7       	in	r25, 0x3e	; 62
    32da:	85 54       	subi	r24, 0x45	; 69
    32dc:	91 09       	sbc	r25, r1
    32de:	0f b6       	in	r0, 0x3f	; 63
    32e0:	f8 94       	cli
    32e2:	9e bf       	out	0x3e, r25	; 62
    32e4:	0f be       	out	0x3f, r0	; 63
    32e6:	8d bf       	out	0x3d, r24	; 61
    32e8:	ad b7       	in	r26, 0x3d	; 61
    32ea:	be b7       	in	r27, 0x3e	; 62
    32ec:	11 96       	adiw	r26, 0x01	; 1
    32ee:	85 e4       	ldi	r24, 0x45	; 69
    32f0:	ea e8       	ldi	r30, 0x8A	; 138
    32f2:	f4 e0       	ldi	r31, 0x04	; 4
    32f4:	01 90       	ld	r0, Z+
    32f6:	0d 92       	st	X+, r0
    32f8:	8a 95       	dec	r24
    32fa:	e1 f7       	brne	.-8      	; 0x32f4 <Modebus_receve_finish+0xb62>
    32fc:	0e 94 81 06 	call	0xd02	; 0xd02 <Reply_modbus>
    3300:	8d b7       	in	r24, 0x3d	; 61
    3302:	9e b7       	in	r25, 0x3e	; 62
    3304:	8b 5b       	subi	r24, 0xBB	; 187
    3306:	9f 4f       	sbci	r25, 0xFF	; 255
    3308:	0f b6       	in	r0, 0x3f	; 63
    330a:	f8 94       	cli
    330c:	9e bf       	out	0x3e, r25	; 62
    330e:	0f be       	out	0x3f, r0	; 63
    3310:	8d bf       	out	0x3d, r24	; 61
    3312:	0a c0       	rjmp	.+20     	; 0x3328 <Modebus_receve_finish+0xb96>
    3314:	68 e9       	ldi	r22, 0x98	; 152
    3316:	71 e2       	ldi	r23, 0x21	; 33
    3318:	81 e0       	ldi	r24, 0x01	; 1
    331a:	90 e0       	ldi	r25, 0x00	; 0
    331c:	0e 94 59 09 	call	0x12b2	; 0x12b2 <Buzzer>
    3320:	80 91 d8 04 	lds	r24, 0x04D8	; 0x8004d8 <Read_Modstr+0x3>
    3324:	80 93 1b 04 	sts	0x041B, r24	; 0x80041b <Speaker_delay_open>
    3328:	df 91       	pop	r29
    332a:	cf 91       	pop	r28
    332c:	08 95       	ret

0000332e <Check_receive_modbus>:
    332e:	1f 93       	push	r17
    3330:	cf 93       	push	r28
    3332:	df 93       	push	r29
    3334:	0e 94 48 06 	call	0xc90	; 0xc90 <uart0_getc>
    3338:	ec 01       	movw	r28, r24
    333a:	d1 11       	cpse	r29, r1
    333c:	5c c0       	rjmp	.+184    	; 0x33f6 <Check_receive_modbus+0xc8>
    333e:	80 91 1a 04 	lds	r24, 0x041A	; 0x80041a <Modbus_intex>
    3342:	81 30       	cpi	r24, 0x01	; 1
    3344:	69 f1       	breq	.+90     	; 0x33a0 <Check_receive_modbus+0x72>
    3346:	b8 f0       	brcs	.+46     	; 0x3376 <Check_receive_modbus+0x48>
    3348:	82 30       	cpi	r24, 0x02	; 2
    334a:	b9 f1       	breq	.+110    	; 0x33ba <Check_receive_modbus+0x8c>
    334c:	83 30       	cpi	r24, 0x03	; 3
    334e:	09 f0       	breq	.+2      	; 0x3352 <Check_receive_modbus+0x24>
    3350:	75 c0       	rjmp	.+234    	; 0x343c <Check_receive_modbus+0x10e>
    3352:	80 91 18 05 	lds	r24, 0x0518	; 0x800518 <Read_Modstr+0x43>
    3356:	90 91 19 05 	lds	r25, 0x0519	; 0x800519 <Read_Modstr+0x44>
    335a:	dc 2f       	mov	r29, r28
    335c:	cc 27       	eor	r28, r28
    335e:	c8 0f       	add	r28, r24
    3360:	d9 1f       	adc	r29, r25
    3362:	d0 93 19 05 	sts	0x0519, r29	; 0x800519 <Read_Modstr+0x44>
    3366:	c0 93 18 05 	sts	0x0518, r28	; 0x800518 <Read_Modstr+0x43>
    336a:	8f ef       	ldi	r24, 0xFF	; 255
    336c:	80 93 1a 04 	sts	0x041A, r24	; 0x80041a <Modbus_intex>
    3370:	0e 94 c9 13 	call	0x2792	; 0x2792 <Modebus_receve_finish>
    3374:	63 c0       	rjmp	.+198    	; 0x343c <Check_receive_modbus+0x10e>
    3376:	f8 94       	cli
    3378:	cc 23       	and	r28, r28
    337a:	31 f0       	breq	.+12     	; 0x3388 <Check_receive_modbus+0x5a>
    337c:	8c e1       	ldi	r24, 0x1C	; 28
    337e:	90 e0       	ldi	r25, 0x00	; 0
    3380:	0e 94 24 24 	call	0x4848	; 0x4848 <eeprom_read_byte>
    3384:	c8 13       	cpse	r28, r24
    3386:	0a c0       	rjmp	.+20     	; 0x339c <Check_receive_modbus+0x6e>
    3388:	81 e0       	ldi	r24, 0x01	; 1
    338a:	80 93 1a 04 	sts	0x041A, r24	; 0x80041a <Modbus_intex>
    338e:	c0 93 d5 04 	sts	0x04D5, r28	; 0x8004d5 <Read_Modstr>
    3392:	8c 2f       	mov	r24, r28
    3394:	0e 94 17 02 	call	0x42e	; 0x42e <Put_CRC>
    3398:	10 92 18 04 	sts	0x0418, r1	; 0x800418 <Modbus_data_store>
    339c:	78 94       	sei
    339e:	4e c0       	rjmp	.+156    	; 0x343c <Check_receive_modbus+0x10e>
    33a0:	8c 2f       	mov	r24, r28
    33a2:	0e 94 17 02 	call	0x42e	; 0x42e <Put_CRC>
    33a6:	c0 93 d6 04 	sts	0x04D6, r28	; 0x8004d6 <Read_Modstr+0x1>
    33aa:	80 91 d6 04 	lds	r24, 0x04D6	; 0x8004d6 <Read_Modstr+0x1>
    33ae:	0e 94 34 02 	call	0x468	; 0x468 <Check_MDdata_Length>
    33b2:	80 93 19 04 	sts	0x0419, r24	; 0x800419 <Modbus_data_count>
    33b6:	82 e0       	ldi	r24, 0x02	; 2
    33b8:	1b c0       	rjmp	.+54     	; 0x33f0 <Check_receive_modbus+0xc2>
    33ba:	10 91 19 04 	lds	r17, 0x0419	; 0x800419 <Modbus_data_count>
    33be:	11 23       	and	r17, r17
    33c0:	89 f0       	breq	.+34     	; 0x33e4 <Check_receive_modbus+0xb6>
    33c2:	e0 91 18 04 	lds	r30, 0x0418	; 0x800418 <Modbus_data_store>
    33c6:	81 e0       	ldi	r24, 0x01	; 1
    33c8:	8e 0f       	add	r24, r30
    33ca:	80 93 18 04 	sts	0x0418, r24	; 0x800418 <Modbus_data_store>
    33ce:	f0 e0       	ldi	r31, 0x00	; 0
    33d0:	eb 52       	subi	r30, 0x2B	; 43
    33d2:	fb 4f       	sbci	r31, 0xFB	; 251
    33d4:	c3 83       	std	Z+3, r28	; 0x03
    33d6:	8c 2f       	mov	r24, r28
    33d8:	0e 94 17 02 	call	0x42e	; 0x42e <Put_CRC>
    33dc:	11 50       	subi	r17, 0x01	; 1
    33de:	10 93 19 04 	sts	0x0419, r17	; 0x800419 <Modbus_data_count>
    33e2:	2c c0       	rjmp	.+88     	; 0x343c <Check_receive_modbus+0x10e>
    33e4:	dd 27       	eor	r29, r29
    33e6:	d0 93 19 05 	sts	0x0519, r29	; 0x800519 <Read_Modstr+0x44>
    33ea:	c0 93 18 05 	sts	0x0518, r28	; 0x800518 <Read_Modstr+0x43>
    33ee:	83 e0       	ldi	r24, 0x03	; 3
    33f0:	80 93 1a 04 	sts	0x041A, r24	; 0x80041a <Modbus_intex>
    33f4:	23 c0       	rjmp	.+70     	; 0x343c <Check_receive_modbus+0x10e>
    33f6:	80 ef       	ldi	r24, 0xF0	; 240
    33f8:	80 93 8b 04 	sts	0x048B, r24	; 0x80048b <send_Modstr+0x1>
    33fc:	10 92 8d 04 	sts	0x048D, r1	; 0x80048d <send_Modstr+0x3>
    3400:	8d b7       	in	r24, 0x3d	; 61
    3402:	9e b7       	in	r25, 0x3e	; 62
    3404:	85 54       	subi	r24, 0x45	; 69
    3406:	91 09       	sbc	r25, r1
    3408:	0f b6       	in	r0, 0x3f	; 63
    340a:	f8 94       	cli
    340c:	9e bf       	out	0x3e, r25	; 62
    340e:	0f be       	out	0x3f, r0	; 63
    3410:	8d bf       	out	0x3d, r24	; 61
    3412:	ad b7       	in	r26, 0x3d	; 61
    3414:	be b7       	in	r27, 0x3e	; 62
    3416:	11 96       	adiw	r26, 0x01	; 1
    3418:	85 e4       	ldi	r24, 0x45	; 69
    341a:	ea e8       	ldi	r30, 0x8A	; 138
    341c:	f4 e0       	ldi	r31, 0x04	; 4
    341e:	01 90       	ld	r0, Z+
    3420:	0d 92       	st	X+, r0
    3422:	8a 95       	dec	r24
    3424:	e1 f7       	brne	.-8      	; 0x341e <Check_receive_modbus+0xf0>
    3426:	0e 94 81 06 	call	0xd02	; 0xd02 <Reply_modbus>
    342a:	8d b7       	in	r24, 0x3d	; 61
    342c:	9e b7       	in	r25, 0x3e	; 62
    342e:	8b 5b       	subi	r24, 0xBB	; 187
    3430:	9f 4f       	sbci	r25, 0xFF	; 255
    3432:	0f b6       	in	r0, 0x3f	; 63
    3434:	f8 94       	cli
    3436:	9e bf       	out	0x3e, r25	; 62
    3438:	0f be       	out	0x3f, r0	; 63
    343a:	8d bf       	out	0x3d, r24	; 61
    343c:	df 91       	pop	r29
    343e:	cf 91       	pop	r28
    3440:	1f 91       	pop	r17
    3442:	0c 94 05 02 	jmp	0x40a	; 0x40a <Reset_Modbus_Timeout>

00003446 <__vector_20>:
    3446:	1f 92       	push	r1
    3448:	0f 92       	push	r0
    344a:	0f b6       	in	r0, 0x3f	; 63
    344c:	0f 92       	push	r0
    344e:	11 24       	eor	r1, r1
    3450:	2f 93       	push	r18
    3452:	3f 93       	push	r19
    3454:	4f 93       	push	r20
    3456:	5f 93       	push	r21
    3458:	6f 93       	push	r22
    345a:	7f 93       	push	r23
    345c:	8f 93       	push	r24
    345e:	9f 93       	push	r25
    3460:	af 93       	push	r26
    3462:	bf 93       	push	r27
    3464:	cf 93       	push	r28
    3466:	ef 93       	push	r30
    3468:	ff 93       	push	r31
    346a:	c0 91 c0 00 	lds	r28, 0x00C0	; 0x8000c0 <__TEXT_REGION_LENGTH__+0x7f80c0>
    346e:	40 91 c6 00 	lds	r20, 0x00C6	; 0x8000c6 <__TEXT_REGION_LENGTH__+0x7f80c6>
    3472:	80 91 95 02 	lds	r24, 0x0295	; 0x800295 <UART_RxHead>
    3476:	90 e0       	ldi	r25, 0x00	; 0
    3478:	01 96       	adiw	r24, 0x01	; 1
    347a:	8f 77       	andi	r24, 0x7F	; 127
    347c:	99 27       	eor	r25, r25
    347e:	20 91 94 02 	lds	r18, 0x0294	; 0x800294 <UART_RxTail>
    3482:	30 e0       	ldi	r19, 0x00	; 0
    3484:	82 17       	cp	r24, r18
    3486:	93 07       	cpc	r25, r19
    3488:	51 f0       	breq	.+20     	; 0x349e <__vector_20+0x58>
    348a:	c8 71       	andi	r28, 0x18	; 24
    348c:	80 93 95 02 	sts	0x0295, r24	; 0x800295 <UART_RxHead>
    3490:	fc 01       	movw	r30, r24
    3492:	e8 56       	subi	r30, 0x68	; 104
    3494:	fd 4f       	sbci	r31, 0xFD	; 253
    3496:	40 83       	st	Z, r20
    3498:	0e 94 97 19 	call	0x332e	; 0x332e <Check_receive_modbus>
    349c:	01 c0       	rjmp	.+2      	; 0x34a0 <__vector_20+0x5a>
    349e:	c2 e0       	ldi	r28, 0x02	; 2
    34a0:	c0 93 93 02 	sts	0x0293, r28	; 0x800293 <UART_LastRxError>
    34a4:	ff 91       	pop	r31
    34a6:	ef 91       	pop	r30
    34a8:	cf 91       	pop	r28
    34aa:	bf 91       	pop	r27
    34ac:	af 91       	pop	r26
    34ae:	9f 91       	pop	r25
    34b0:	8f 91       	pop	r24
    34b2:	7f 91       	pop	r23
    34b4:	6f 91       	pop	r22
    34b6:	5f 91       	pop	r21
    34b8:	4f 91       	pop	r20
    34ba:	3f 91       	pop	r19
    34bc:	2f 91       	pop	r18
    34be:	0f 90       	pop	r0
    34c0:	0f be       	out	0x3f, r0	; 63
    34c2:	0f 90       	pop	r0
    34c4:	1f 90       	pop	r1
    34c6:	18 95       	reti

000034c8 <Change_Timer>:
    34c8:	1f 93       	push	r17
    34ca:	cf 93       	push	r28
    34cc:	df 93       	push	r29
    34ce:	10 91 b1 00 	lds	r17, 0x00B1	; 0x8000b1 <__TEXT_REGION_LENGTH__+0x7f80b1>
    34d2:	10 92 b1 00 	sts	0x00B1, r1	; 0x8000b1 <__TEXT_REGION_LENGTH__+0x7f80b1>
    34d6:	c1 e0       	ldi	r28, 0x01	; 1
    34d8:	c0 93 1c 04 	sts	0x041C, r28	; 0x80041c <Change_timer_on>
    34dc:	80 91 76 04 	lds	r24, 0x0476	; 0x800476 <timer>
    34e0:	98 2f       	mov	r25, r24
    34e2:	92 95       	swap	r25
    34e4:	9f 70       	andi	r25, 0x0F	; 15
    34e6:	90 93 79 04 	sts	0x0479, r25	; 0x800479 <set_clock_buf>
    34ea:	8f 70       	andi	r24, 0x0F	; 15
    34ec:	80 93 7a 04 	sts	0x047A, r24	; 0x80047a <set_clock_buf+0x1>
    34f0:	80 91 77 04 	lds	r24, 0x0477	; 0x800477 <timer+0x1>
    34f4:	98 2f       	mov	r25, r24
    34f6:	92 95       	swap	r25
    34f8:	9f 70       	andi	r25, 0x0F	; 15
    34fa:	90 93 7b 04 	sts	0x047B, r25	; 0x80047b <set_clock_buf+0x2>
    34fe:	8f 70       	andi	r24, 0x0F	; 15
    3500:	80 93 7c 04 	sts	0x047C, r24	; 0x80047c <set_clock_buf+0x3>
    3504:	80 91 78 04 	lds	r24, 0x0478	; 0x800478 <timer+0x2>
    3508:	98 2f       	mov	r25, r24
    350a:	92 95       	swap	r25
    350c:	9f 70       	andi	r25, 0x0F	; 15
    350e:	90 93 7d 04 	sts	0x047D, r25	; 0x80047d <set_clock_buf+0x4>
    3512:	8f 70       	andi	r24, 0x0F	; 15
    3514:	80 93 7e 04 	sts	0x047E, r24	; 0x80047e <set_clock_buf+0x5>
    3518:	0e 94 7e 09 	call	0x12fc	; 0x12fc <Display_set_clock>
    351c:	10 92 d4 04 	sts	0x04D4, r1	; 0x8004d4 <cursor>
    3520:	c0 93 1f 04 	sts	0x041F, r28	; 0x80041f <Menu_blink_on>
    3524:	cf ef       	ldi	r28, 0xFF	; 255
    3526:	df ef       	ldi	r29, 0xFF	; 255
    3528:	80 91 05 01 	lds	r24, 0x0105	; 0x800105 <key>
    352c:	90 91 06 01 	lds	r25, 0x0106	; 0x800106 <key+0x1>
    3530:	47 97       	sbiw	r24, 0x17	; 23
    3532:	09 f4       	brne	.+2      	; 0x3536 <Change_Timer+0x6e>
    3534:	97 c0       	rjmp	.+302    	; 0x3664 <Change_Timer+0x19c>
    3536:	80 91 05 01 	lds	r24, 0x0105	; 0x800105 <key>
    353a:	90 91 06 01 	lds	r25, 0x0106	; 0x800106 <key+0x1>
    353e:	8f 97       	sbiw	r24, 0x2f	; 47
    3540:	09 f4       	brne	.+2      	; 0x3544 <Change_Timer+0x7c>
    3542:	90 c0       	rjmp	.+288    	; 0x3664 <Change_Timer+0x19c>
    3544:	80 91 05 01 	lds	r24, 0x0105	; 0x800105 <key>
    3548:	90 91 06 01 	lds	r25, 0x0106	; 0x800106 <key+0x1>
    354c:	97 fd       	sbrc	r25, 7
    354e:	38 c0       	rjmp	.+112    	; 0x35c0 <Change_Timer+0xf8>
    3550:	80 91 05 01 	lds	r24, 0x0105	; 0x800105 <key>
    3554:	90 91 06 01 	lds	r25, 0x0106	; 0x800106 <key+0x1>
    3558:	0a 97       	sbiw	r24, 0x0a	; 10
    355a:	94 f5       	brge	.+100    	; 0x35c0 <Change_Timer+0xf8>
    355c:	e0 91 d4 04 	lds	r30, 0x04D4	; 0x8004d4 <cursor>
    3560:	80 91 05 01 	lds	r24, 0x0105	; 0x800105 <key>
    3564:	90 91 06 01 	lds	r25, 0x0106	; 0x800106 <key+0x1>
    3568:	0e 2e       	mov	r0, r30
    356a:	00 0c       	add	r0, r0
    356c:	ff 0b       	sbc	r31, r31
    356e:	e7 58       	subi	r30, 0x87	; 135
    3570:	fb 4f       	sbci	r31, 0xFB	; 251
    3572:	80 83       	st	Z, r24
    3574:	80 91 d4 04 	lds	r24, 0x04D4	; 0x8004d4 <cursor>
    3578:	81 30       	cpi	r24, 0x01	; 1
    357a:	41 f0       	breq	.+16     	; 0x358c <Change_Timer+0xc4>
    357c:	80 91 d4 04 	lds	r24, 0x04D4	; 0x8004d4 <cursor>
    3580:	82 30       	cpi	r24, 0x02	; 2
    3582:	21 f0       	breq	.+8      	; 0x358c <Change_Timer+0xc4>
    3584:	80 91 d4 04 	lds	r24, 0x04D4	; 0x8004d4 <cursor>
    3588:	83 30       	cpi	r24, 0x03	; 3
    358a:	51 f4       	brne	.+20     	; 0x35a0 <Change_Timer+0xd8>
    358c:	e0 91 d4 04 	lds	r30, 0x04D4	; 0x8004d4 <cursor>
    3590:	0e 2e       	mov	r0, r30
    3592:	00 0c       	add	r0, r0
    3594:	ff 0b       	sbc	r31, r31
    3596:	e7 58       	subi	r30, 0x87	; 135
    3598:	fb 4f       	sbci	r31, 0xFB	; 251
    359a:	80 81       	ld	r24, Z
    359c:	80 68       	ori	r24, 0x80	; 128
    359e:	80 83       	st	Z, r24
    35a0:	d0 93 06 01 	sts	0x0106, r29	; 0x800106 <key+0x1>
    35a4:	c0 93 05 01 	sts	0x0105, r28	; 0x800105 <key>
    35a8:	80 91 d4 04 	lds	r24, 0x04D4	; 0x8004d4 <cursor>
    35ac:	85 30       	cpi	r24, 0x05	; 5
    35ae:	28 f4       	brcc	.+10     	; 0x35ba <Change_Timer+0xf2>
    35b0:	80 91 d4 04 	lds	r24, 0x04D4	; 0x8004d4 <cursor>
    35b4:	8f 5f       	subi	r24, 0xFF	; 255
    35b6:	80 93 d4 04 	sts	0x04D4, r24	; 0x8004d4 <cursor>
    35ba:	0e 94 7e 09 	call	0x12fc	; 0x12fc <Display_set_clock>
    35be:	b4 cf       	rjmp	.-152    	; 0x3528 <Change_Timer+0x60>
    35c0:	80 91 05 01 	lds	r24, 0x0105	; 0x800105 <key>
    35c4:	90 91 06 01 	lds	r25, 0x0106	; 0x800106 <key+0x1>
    35c8:	45 97       	sbiw	r24, 0x15	; 21
    35ca:	49 f4       	brne	.+18     	; 0x35de <Change_Timer+0x116>
    35cc:	80 91 d4 04 	lds	r24, 0x04D4	; 0x8004d4 <cursor>
    35d0:	88 23       	and	r24, r24
    35d2:	09 f4       	brne	.+2      	; 0x35d6 <Change_Timer+0x10e>
    35d4:	a9 cf       	rjmp	.-174    	; 0x3528 <Change_Timer+0x60>
    35d6:	80 91 d4 04 	lds	r24, 0x04D4	; 0x8004d4 <cursor>
    35da:	81 50       	subi	r24, 0x01	; 1
    35dc:	0e c0       	rjmp	.+28     	; 0x35fa <Change_Timer+0x132>
    35de:	80 91 05 01 	lds	r24, 0x0105	; 0x800105 <key>
    35e2:	90 91 06 01 	lds	r25, 0x0106	; 0x800106 <key+0x1>
    35e6:	46 97       	sbiw	r24, 0x16	; 22
    35e8:	89 f4       	brne	.+34     	; 0x360c <Change_Timer+0x144>
    35ea:	80 91 d4 04 	lds	r24, 0x04D4	; 0x8004d4 <cursor>
    35ee:	85 30       	cpi	r24, 0x05	; 5
    35f0:	08 f0       	brcs	.+2      	; 0x35f4 <Change_Timer+0x12c>
    35f2:	9a cf       	rjmp	.-204    	; 0x3528 <Change_Timer+0x60>
    35f4:	80 91 d4 04 	lds	r24, 0x04D4	; 0x8004d4 <cursor>
    35f8:	8f 5f       	subi	r24, 0xFF	; 255
    35fa:	80 93 d4 04 	sts	0x04D4, r24	; 0x8004d4 <cursor>
    35fe:	0e 94 7e 09 	call	0x12fc	; 0x12fc <Display_set_clock>
    3602:	d0 93 06 01 	sts	0x0106, r29	; 0x800106 <key+0x1>
    3606:	c0 93 05 01 	sts	0x0105, r28	; 0x800105 <key>
    360a:	8e cf       	rjmp	.-228    	; 0x3528 <Change_Timer+0x60>
    360c:	80 91 05 01 	lds	r24, 0x0105	; 0x800105 <key>
    3610:	90 91 06 01 	lds	r25, 0x0106	; 0x800106 <key+0x1>
    3614:	47 97       	sbiw	r24, 0x17	; 23
    3616:	09 f0       	breq	.+2      	; 0x361a <Change_Timer+0x152>
    3618:	87 cf       	rjmp	.-242    	; 0x3528 <Change_Timer+0x60>
    361a:	80 91 79 04 	lds	r24, 0x0479	; 0x800479 <set_clock_buf>
    361e:	20 e1       	ldi	r18, 0x10	; 16
    3620:	82 9f       	mul	r24, r18
    3622:	c0 01       	movw	r24, r0
    3624:	11 24       	eor	r1, r1
    3626:	90 91 7a 04 	lds	r25, 0x047A	; 0x80047a <set_clock_buf+0x1>
    362a:	9f 70       	andi	r25, 0x0F	; 15
    362c:	89 2b       	or	r24, r25
    362e:	80 93 76 04 	sts	0x0476, r24	; 0x800476 <timer>
    3632:	80 91 7b 04 	lds	r24, 0x047B	; 0x80047b <set_clock_buf+0x2>
    3636:	20 e1       	ldi	r18, 0x10	; 16
    3638:	82 9f       	mul	r24, r18
    363a:	c0 01       	movw	r24, r0
    363c:	11 24       	eor	r1, r1
    363e:	90 91 7c 04 	lds	r25, 0x047C	; 0x80047c <set_clock_buf+0x3>
    3642:	9f 70       	andi	r25, 0x0F	; 15
    3644:	89 2b       	or	r24, r25
    3646:	80 93 77 04 	sts	0x0477, r24	; 0x800477 <timer+0x1>
    364a:	80 91 7d 04 	lds	r24, 0x047D	; 0x80047d <set_clock_buf+0x4>
    364e:	20 e1       	ldi	r18, 0x10	; 16
    3650:	82 9f       	mul	r24, r18
    3652:	c0 01       	movw	r24, r0
    3654:	11 24       	eor	r1, r1
    3656:	90 91 7e 04 	lds	r25, 0x047E	; 0x80047e <set_clock_buf+0x5>
    365a:	9f 70       	andi	r25, 0x0F	; 15
    365c:	89 2b       	or	r24, r25
    365e:	80 93 78 04 	sts	0x0478, r24	; 0x800478 <timer+0x2>
    3662:	62 cf       	rjmp	.-316    	; 0x3528 <Change_Timer+0x60>
    3664:	10 92 d4 04 	sts	0x04D4, r1	; 0x8004d4 <cursor>
    3668:	10 92 31 04 	sts	0x0431, r1	; 0x800431 <shift>
    366c:	10 92 22 04 	sts	0x0422, r1	; 0x800422 <Clock_blink>
    3670:	10 92 1f 04 	sts	0x041F, r1	; 0x80041f <Menu_blink_on>
    3674:	10 93 b1 00 	sts	0x00B1, r17	; 0x8000b1 <__TEXT_REGION_LENGTH__+0x7f80b1>
    3678:	0e 94 c8 0a 	call	0x1590	; 0x1590 <update_score_display>
    367c:	0e 94 d2 08 	call	0x11a4	; 0x11a4 <timer_display>
    3680:	80 91 05 01 	lds	r24, 0x0105	; 0x800105 <key>
    3684:	90 91 06 01 	lds	r25, 0x0106	; 0x800106 <key+0x1>
    3688:	47 97       	sbiw	r24, 0x17	; 23
    368a:	91 f4       	brne	.+36     	; 0x36b0 <Change_Timer+0x1e8>
    368c:	88 e9       	ldi	r24, 0x98	; 152
    368e:	91 e2       	ldi	r25, 0x21	; 33
    3690:	0e 94 2c 01 	call	0x258	; 0x258 <Buzzer.part.7>
    3694:	8f ef       	ldi	r24, 0xFF	; 255
    3696:	92 e5       	ldi	r25, 0x52	; 82
    3698:	27 e0       	ldi	r18, 0x07	; 7
    369a:	81 50       	subi	r24, 0x01	; 1
    369c:	90 40       	sbci	r25, 0x00	; 0
    369e:	20 40       	sbci	r18, 0x00	; 0
    36a0:	e1 f7       	brne	.-8      	; 0x369a <Change_Timer+0x1d2>
    36a2:	00 c0       	rjmp	.+0      	; 0x36a4 <Change_Timer+0x1dc>
    36a4:	00 00       	nop
    36a6:	60 e0       	ldi	r22, 0x00	; 0
    36a8:	70 e0       	ldi	r23, 0x00	; 0
    36aa:	80 e0       	ldi	r24, 0x00	; 0
    36ac:	0e 94 59 09 	call	0x12b2	; 0x12b2 <Buzzer>
    36b0:	8f ef       	ldi	r24, 0xFF	; 255
    36b2:	9f ef       	ldi	r25, 0xFF	; 255
    36b4:	90 93 06 01 	sts	0x0106, r25	; 0x800106 <key+0x1>
    36b8:	80 93 05 01 	sts	0x0105, r24	; 0x800105 <key>
    36bc:	10 92 1c 04 	sts	0x041C, r1	; 0x80041c <Change_timer_on>
    36c0:	df 91       	pop	r29
    36c2:	cf 91       	pop	r28
    36c4:	1f 91       	pop	r17
    36c6:	08 95       	ret

000036c8 <remote_instruction>:
    36c8:	cf 93       	push	r28
    36ca:	df 93       	push	r29
    36cc:	00 d0       	rcall	.+0      	; 0x36ce <remote_instruction+0x6>
    36ce:	cd b7       	in	r28, 0x3d	; 61
    36d0:	de b7       	in	r29, 0x3e	; 62
    36d2:	ce 01       	movw	r24, r28
    36d4:	01 96       	adiw	r24, 0x01	; 1
    36d6:	0e 94 f7 01 	call	0x3ee	; 0x3ee <RC5_NewCommandReceived>
    36da:	88 23       	and	r24, r24
    36dc:	09 f4       	brne	.+2      	; 0x36e0 <remote_instruction+0x18>
    36de:	87 c1       	rjmp	.+782    	; 0x39ee <remote_instruction+0x326>
    36e0:	0e 94 db 01 	call	0x3b6	; 0x3b6 <RC5_Reset>
    36e4:	9e b1       	in	r25, 0x0e	; 14
    36e6:	84 e0       	ldi	r24, 0x04	; 4
    36e8:	89 27       	eor	r24, r25
    36ea:	8e b9       	out	0x0e, r24	; 14
    36ec:	29 81       	ldd	r18, Y+1	; 0x01
    36ee:	3a 81       	ldd	r19, Y+2	; 0x02
    36f0:	c9 01       	movw	r24, r18
    36f2:	46 e0       	ldi	r20, 0x06	; 6
    36f4:	96 95       	lsr	r25
    36f6:	87 95       	ror	r24
    36f8:	4a 95       	dec	r20
    36fa:	e1 f7       	brne	.-8      	; 0x36f4 <remote_instruction+0x2c>
    36fc:	98 2f       	mov	r25, r24
    36fe:	9f 71       	andi	r25, 0x1F	; 31
    3700:	82 2f       	mov	r24, r18
    3702:	8f 73       	andi	r24, 0x3F	; 63
    3704:	22 27       	eor	r18, r18
    3706:	38 70       	andi	r19, 0x08	; 8
    3708:	63 2f       	mov	r22, r19
    370a:	66 95       	lsr	r22
    370c:	66 95       	lsr	r22
    370e:	66 95       	lsr	r22
    3710:	40 91 07 01 	lds	r20, 0x0107	; 0x800107 <previews_togle>
    3714:	26 2f       	mov	r18, r22
    3716:	30 e0       	ldi	r19, 0x00	; 0
    3718:	04 2e       	mov	r0, r20
    371a:	00 0c       	add	r0, r0
    371c:	55 0b       	sbc	r21, r21
    371e:	42 17       	cp	r20, r18
    3720:	53 07       	cpc	r21, r19
    3722:	11 f0       	breq	.+4      	; 0x3728 <remote_instruction+0x60>
    3724:	99 23       	and	r25, r25
    3726:	61 f0       	breq	.+24     	; 0x3740 <remote_instruction+0x78>
    3728:	40 91 07 01 	lds	r20, 0x0107	; 0x800107 <previews_togle>
    372c:	04 2e       	mov	r0, r20
    372e:	00 0c       	add	r0, r0
    3730:	55 0b       	sbc	r21, r21
    3732:	24 17       	cp	r18, r20
    3734:	35 07       	cpc	r19, r21
    3736:	09 f4       	brne	.+2      	; 0x373a <remote_instruction+0x72>
    3738:	ee c0       	rjmp	.+476    	; 0x3916 <remote_instruction+0x24e>
    373a:	93 30       	cpi	r25, 0x03	; 3
    373c:	09 f0       	breq	.+2      	; 0x3740 <remote_instruction+0x78>
    373e:	eb c0       	rjmp	.+470    	; 0x3916 <remote_instruction+0x24e>
    3740:	60 93 07 01 	sts	0x0107, r22	; 0x800107 <previews_togle>
    3744:	28 2f       	mov	r18, r24
    3746:	30 e0       	ldi	r19, 0x00	; 0
    3748:	30 93 06 01 	sts	0x0106, r19	; 0x800106 <key+0x1>
    374c:	20 93 05 01 	sts	0x0105, r18	; 0x800105 <key>
    3750:	8c 32       	cpi	r24, 0x2C	; 44
    3752:	09 f4       	brne	.+2      	; 0x3756 <remote_instruction+0x8e>
    3754:	a7 c0       	rjmp	.+334    	; 0x38a4 <remote_instruction+0x1dc>
    3756:	80 f4       	brcc	.+32     	; 0x3778 <remote_instruction+0xb0>
    3758:	82 32       	cpi	r24, 0x22	; 34
    375a:	09 f4       	brne	.+2      	; 0x375e <remote_instruction+0x96>
    375c:	89 c0       	rjmp	.+274    	; 0x3870 <remote_instruction+0x1a8>
    375e:	38 f4       	brcc	.+14     	; 0x376e <remote_instruction+0xa6>
    3760:	8a 30       	cpi	r24, 0x0A	; 10
    3762:	09 f4       	brne	.+2      	; 0x3766 <remote_instruction+0x9e>
    3764:	cc c0       	rjmp	.+408    	; 0x38fe <remote_instruction+0x236>
    3766:	8f 30       	cpi	r24, 0x0F	; 15
    3768:	09 f4       	brne	.+2      	; 0x376c <remote_instruction+0xa4>
    376a:	52 c0       	rjmp	.+164    	; 0x3810 <remote_instruction+0x148>
    376c:	37 c1       	rjmp	.+622    	; 0x39dc <remote_instruction+0x314>
    376e:	89 32       	cpi	r24, 0x29	; 41
    3770:	19 f1       	breq	.+70     	; 0x37b8 <remote_instruction+0xf0>
    3772:	8b 32       	cpi	r24, 0x2B	; 43
    3774:	a9 f1       	breq	.+106    	; 0x37e0 <remote_instruction+0x118>
    3776:	32 c1       	rjmp	.+612    	; 0x39dc <remote_instruction+0x314>
    3778:	88 33       	cpi	r24, 0x38	; 56
    377a:	09 f4       	brne	.+2      	; 0x377e <remote_instruction+0xb6>
    377c:	61 c0       	rjmp	.+194    	; 0x3840 <remote_instruction+0x178>
    377e:	30 f4       	brcc	.+12     	; 0x378c <remote_instruction+0xc4>
    3780:	8e 32       	cpi	r24, 0x2E	; 46
    3782:	69 f0       	breq	.+26     	; 0x379e <remote_instruction+0xd6>
    3784:	8f 32       	cpi	r24, 0x2F	; 47
    3786:	09 f4       	brne	.+2      	; 0x378a <remote_instruction+0xc2>
    3788:	ae c0       	rjmp	.+348    	; 0x38e6 <remote_instruction+0x21e>
    378a:	28 c1       	rjmp	.+592    	; 0x39dc <remote_instruction+0x314>
    378c:	8c 33       	cpi	r24, 0x3C	; 60
    378e:	a1 f1       	breq	.+104    	; 0x37f8 <remote_instruction+0x130>
    3790:	8e 33       	cpi	r24, 0x3E	; 62
    3792:	09 f4       	brne	.+2      	; 0x3796 <remote_instruction+0xce>
    3794:	49 c0       	rjmp	.+146    	; 0x3828 <remote_instruction+0x160>
    3796:	89 33       	cpi	r24, 0x39	; 57
    3798:	09 f0       	breq	.+2      	; 0x379c <remote_instruction+0xd4>
    379a:	20 c1       	rjmp	.+576    	; 0x39dc <remote_instruction+0x314>
    379c:	5d c0       	rjmp	.+186    	; 0x3858 <remote_instruction+0x190>
    379e:	10 92 6f 04 	sts	0x046F, r1	; 0x80046f <Score_home>
    37a2:	10 92 6e 04 	sts	0x046E, r1	; 0x80046e <Score_guest>
    37a6:	10 92 87 04 	sts	0x0487, r1	; 0x800487 <display_out_buf+0x8>
    37aa:	10 92 88 04 	sts	0x0488, r1	; 0x800488 <display_out_buf+0x9>
    37ae:	10 92 89 04 	sts	0x0489, r1	; 0x800489 <display_out_buf+0xa>
    37b2:	0e 94 c8 0a 	call	0x1590	; 0x1590 <update_score_display>
    37b6:	0d c0       	rjmp	.+26     	; 0x37d2 <remote_instruction+0x10a>
    37b8:	80 91 30 04 	lds	r24, 0x0430	; 0x800430 <user_instruction>
    37bc:	81 34       	cpi	r24, 0x41	; 65
    37be:	09 f4       	brne	.+2      	; 0x37c2 <remote_instruction+0xfa>
    37c0:	16 c1       	rjmp	.+556    	; 0x39ee <remote_instruction+0x326>
    37c2:	80 91 30 04 	lds	r24, 0x0430	; 0x800430 <user_instruction>
    37c6:	81 36       	cpi	r24, 0x61	; 97
    37c8:	09 f4       	brne	.+2      	; 0x37cc <remote_instruction+0x104>
    37ca:	11 c1       	rjmp	.+546    	; 0x39ee <remote_instruction+0x326>
    37cc:	81 e4       	ldi	r24, 0x41	; 65
    37ce:	80 93 30 04 	sts	0x0430, r24	; 0x800430 <user_instruction>
    37d2:	8f ef       	ldi	r24, 0xFF	; 255
    37d4:	9f ef       	ldi	r25, 0xFF	; 255
    37d6:	90 93 06 01 	sts	0x0106, r25	; 0x800106 <key+0x1>
    37da:	80 93 05 01 	sts	0x0105, r24	; 0x800105 <key>
    37de:	07 c1       	rjmp	.+526    	; 0x39ee <remote_instruction+0x326>
    37e0:	80 91 30 04 	lds	r24, 0x0430	; 0x800430 <user_instruction>
    37e4:	82 34       	cpi	r24, 0x42	; 66
    37e6:	09 f4       	brne	.+2      	; 0x37ea <remote_instruction+0x122>
    37e8:	02 c1       	rjmp	.+516    	; 0x39ee <remote_instruction+0x326>
    37ea:	80 91 30 04 	lds	r24, 0x0430	; 0x800430 <user_instruction>
    37ee:	82 36       	cpi	r24, 0x62	; 98
    37f0:	09 f4       	brne	.+2      	; 0x37f4 <remote_instruction+0x12c>
    37f2:	fd c0       	rjmp	.+506    	; 0x39ee <remote_instruction+0x326>
    37f4:	82 e4       	ldi	r24, 0x42	; 66
    37f6:	eb cf       	rjmp	.-42     	; 0x37ce <remote_instruction+0x106>
    37f8:	80 91 30 04 	lds	r24, 0x0430	; 0x800430 <user_instruction>
    37fc:	85 35       	cpi	r24, 0x55	; 85
    37fe:	09 f4       	brne	.+2      	; 0x3802 <remote_instruction+0x13a>
    3800:	f6 c0       	rjmp	.+492    	; 0x39ee <remote_instruction+0x326>
    3802:	80 91 30 04 	lds	r24, 0x0430	; 0x800430 <user_instruction>
    3806:	85 37       	cpi	r24, 0x75	; 117
    3808:	09 f4       	brne	.+2      	; 0x380c <remote_instruction+0x144>
    380a:	f1 c0       	rjmp	.+482    	; 0x39ee <remote_instruction+0x326>
    380c:	85 e5       	ldi	r24, 0x55	; 85
    380e:	df cf       	rjmp	.-66     	; 0x37ce <remote_instruction+0x106>
    3810:	80 91 30 04 	lds	r24, 0x0430	; 0x800430 <user_instruction>
    3814:	83 35       	cpi	r24, 0x53	; 83
    3816:	09 f4       	brne	.+2      	; 0x381a <remote_instruction+0x152>
    3818:	ea c0       	rjmp	.+468    	; 0x39ee <remote_instruction+0x326>
    381a:	80 91 30 04 	lds	r24, 0x0430	; 0x800430 <user_instruction>
    381e:	83 37       	cpi	r24, 0x73	; 115
    3820:	09 f4       	brne	.+2      	; 0x3824 <remote_instruction+0x15c>
    3822:	e5 c0       	rjmp	.+458    	; 0x39ee <remote_instruction+0x326>
    3824:	83 e5       	ldi	r24, 0x53	; 83
    3826:	d3 cf       	rjmp	.-90     	; 0x37ce <remote_instruction+0x106>
    3828:	80 91 30 04 	lds	r24, 0x0430	; 0x800430 <user_instruction>
    382c:	84 34       	cpi	r24, 0x44	; 68
    382e:	09 f4       	brne	.+2      	; 0x3832 <remote_instruction+0x16a>
    3830:	de c0       	rjmp	.+444    	; 0x39ee <remote_instruction+0x326>
    3832:	80 91 30 04 	lds	r24, 0x0430	; 0x800430 <user_instruction>
    3836:	84 36       	cpi	r24, 0x64	; 100
    3838:	09 f4       	brne	.+2      	; 0x383c <remote_instruction+0x174>
    383a:	d9 c0       	rjmp	.+434    	; 0x39ee <remote_instruction+0x326>
    383c:	84 e4       	ldi	r24, 0x44	; 68
    383e:	c7 cf       	rjmp	.-114    	; 0x37ce <remote_instruction+0x106>
    3840:	80 91 30 04 	lds	r24, 0x0430	; 0x800430 <user_instruction>
    3844:	86 34       	cpi	r24, 0x46	; 70
    3846:	09 f4       	brne	.+2      	; 0x384a <remote_instruction+0x182>
    3848:	d2 c0       	rjmp	.+420    	; 0x39ee <remote_instruction+0x326>
    384a:	80 91 30 04 	lds	r24, 0x0430	; 0x800430 <user_instruction>
    384e:	86 36       	cpi	r24, 0x66	; 102
    3850:	09 f4       	brne	.+2      	; 0x3854 <remote_instruction+0x18c>
    3852:	cd c0       	rjmp	.+410    	; 0x39ee <remote_instruction+0x326>
    3854:	86 e4       	ldi	r24, 0x46	; 70
    3856:	bb cf       	rjmp	.-138    	; 0x37ce <remote_instruction+0x106>
    3858:	80 91 30 04 	lds	r24, 0x0430	; 0x800430 <user_instruction>
    385c:	85 34       	cpi	r24, 0x45	; 69
    385e:	09 f4       	brne	.+2      	; 0x3862 <remote_instruction+0x19a>
    3860:	c6 c0       	rjmp	.+396    	; 0x39ee <remote_instruction+0x326>
    3862:	80 91 30 04 	lds	r24, 0x0430	; 0x800430 <user_instruction>
    3866:	85 36       	cpi	r24, 0x65	; 101
    3868:	09 f4       	brne	.+2      	; 0x386c <remote_instruction+0x1a4>
    386a:	c1 c0       	rjmp	.+386    	; 0x39ee <remote_instruction+0x326>
    386c:	85 e4       	ldi	r24, 0x45	; 69
    386e:	af cf       	rjmp	.-162    	; 0x37ce <remote_instruction+0x106>
    3870:	80 91 30 04 	lds	r24, 0x0430	; 0x800430 <user_instruction>
    3874:	83 34       	cpi	r24, 0x43	; 67
    3876:	49 f0       	breq	.+18     	; 0x388a <remote_instruction+0x1c2>
    3878:	80 91 30 04 	lds	r24, 0x0430	; 0x800430 <user_instruction>
    387c:	83 36       	cpi	r24, 0x63	; 99
    387e:	29 f0       	breq	.+10     	; 0x388a <remote_instruction+0x1c2>
    3880:	83 e4       	ldi	r24, 0x43	; 67
    3882:	80 93 30 04 	sts	0x0430, r24	; 0x800430 <user_instruction>
    3886:	81 e0       	ldi	r24, 0x01	; 1
    3888:	2b c0       	rjmp	.+86     	; 0x38e0 <remote_instruction+0x218>
    388a:	80 91 30 04 	lds	r24, 0x0430	; 0x800430 <user_instruction>
    388e:	83 34       	cpi	r24, 0x43	; 67
    3890:	29 f0       	breq	.+10     	; 0x389c <remote_instruction+0x1d4>
    3892:	80 91 30 04 	lds	r24, 0x0430	; 0x800430 <user_instruction>
    3896:	83 36       	cpi	r24, 0x63	; 99
    3898:	09 f0       	breq	.+2      	; 0x389c <remote_instruction+0x1d4>
    389a:	a9 c0       	rjmp	.+338    	; 0x39ee <remote_instruction+0x326>
    389c:	10 92 30 04 	sts	0x0430, r1	; 0x800430 <user_instruction>
    38a0:	82 e0       	ldi	r24, 0x02	; 2
    38a2:	1e c0       	rjmp	.+60     	; 0x38e0 <remote_instruction+0x218>
    38a4:	80 91 30 04 	lds	r24, 0x0430	; 0x800430 <user_instruction>
    38a8:	83 34       	cpi	r24, 0x43	; 67
    38aa:	69 f0       	breq	.+26     	; 0x38c6 <remote_instruction+0x1fe>
    38ac:	80 91 30 04 	lds	r24, 0x0430	; 0x800430 <user_instruction>
    38b0:	83 36       	cpi	r24, 0x63	; 99
    38b2:	49 f0       	breq	.+18     	; 0x38c6 <remote_instruction+0x1fe>
    38b4:	80 91 1e 04 	lds	r24, 0x041E	; 0x80041e <Set_countdown_bank>
    38b8:	83 30       	cpi	r24, 0x03	; 3
    38ba:	29 f0       	breq	.+10     	; 0x38c6 <remote_instruction+0x1fe>
    38bc:	83 e4       	ldi	r24, 0x43	; 67
    38be:	80 93 30 04 	sts	0x0430, r24	; 0x800430 <user_instruction>
    38c2:	83 e0       	ldi	r24, 0x03	; 3
    38c4:	0d c0       	rjmp	.+26     	; 0x38e0 <remote_instruction+0x218>
    38c6:	80 91 30 04 	lds	r24, 0x0430	; 0x800430 <user_instruction>
    38ca:	83 36       	cpi	r24, 0x63	; 99
    38cc:	09 f0       	breq	.+2      	; 0x38d0 <remote_instruction+0x208>
    38ce:	8f c0       	rjmp	.+286    	; 0x39ee <remote_instruction+0x326>
    38d0:	80 91 1e 04 	lds	r24, 0x041E	; 0x80041e <Set_countdown_bank>
    38d4:	83 30       	cpi	r24, 0x03	; 3
    38d6:	09 f0       	breq	.+2      	; 0x38da <remote_instruction+0x212>
    38d8:	8a c0       	rjmp	.+276    	; 0x39ee <remote_instruction+0x326>
    38da:	10 92 30 04 	sts	0x0430, r1	; 0x800430 <user_instruction>
    38de:	84 e0       	ldi	r24, 0x04	; 4
    38e0:	80 93 1e 04 	sts	0x041E, r24	; 0x80041e <Set_countdown_bank>
    38e4:	76 cf       	rjmp	.-276    	; 0x37d2 <remote_instruction+0x10a>
    38e6:	80 91 1c 04 	lds	r24, 0x041C	; 0x80041c <Change_timer_on>
    38ea:	81 11       	cpse	r24, r1
    38ec:	80 c0       	rjmp	.+256    	; 0x39ee <remote_instruction+0x326>
    38ee:	10 92 30 04 	sts	0x0430, r1	; 0x800430 <user_instruction>
    38f2:	10 92 1e 04 	sts	0x041E, r1	; 0x80041e <Set_countdown_bank>
    38f6:	81 e0       	ldi	r24, 0x01	; 1
    38f8:	0e 94 0e 0b 	call	0x161c	; 0x161c <display_init>
    38fc:	78 c0       	rjmp	.+240    	; 0x39ee <remote_instruction+0x326>
    38fe:	80 91 30 04 	lds	r24, 0x0430	; 0x800430 <user_instruction>
    3902:	8f 34       	cpi	r24, 0x4F	; 79
    3904:	09 f4       	brne	.+2      	; 0x3908 <remote_instruction+0x240>
    3906:	73 c0       	rjmp	.+230    	; 0x39ee <remote_instruction+0x326>
    3908:	80 91 30 04 	lds	r24, 0x0430	; 0x800430 <user_instruction>
    390c:	8f 34       	cpi	r24, 0x4F	; 79
    390e:	09 f4       	brne	.+2      	; 0x3912 <remote_instruction+0x24a>
    3910:	6e c0       	rjmp	.+220    	; 0x39ee <remote_instruction+0x326>
    3912:	8f e4       	ldi	r24, 0x4F	; 79
    3914:	5c cf       	rjmp	.-328    	; 0x37ce <remote_instruction+0x106>
    3916:	90 91 1d 04 	lds	r25, 0x041D	; 0x80041d <Game_on>
    391a:	99 23       	and	r25, r25
    391c:	09 f4       	brne	.+2      	; 0x3920 <remote_instruction+0x258>
    391e:	5e c0       	rjmp	.+188    	; 0x39dc <remote_instruction+0x314>
    3920:	80 31       	cpi	r24, 0x10	; 16
    3922:	99 f0       	breq	.+38     	; 0x394a <remote_instruction+0x282>
    3924:	50 f4       	brcc	.+20     	; 0x393a <remote_instruction+0x272>
    3926:	88 30       	cpi	r24, 0x08	; 8
    3928:	09 f4       	brne	.+2      	; 0x392c <remote_instruction+0x264>
    392a:	42 c0       	rjmp	.+132    	; 0x39b0 <remote_instruction+0x2e8>
    392c:	89 30       	cpi	r24, 0x09	; 9
    392e:	09 f4       	brne	.+2      	; 0x3932 <remote_instruction+0x26a>
    3930:	4a c0       	rjmp	.+148    	; 0x39c6 <remote_instruction+0x2fe>
    3932:	87 30       	cpi	r24, 0x07	; 7
    3934:	09 f0       	breq	.+2      	; 0x3938 <remote_instruction+0x270>
    3936:	52 c0       	rjmp	.+164    	; 0x39dc <remote_instruction+0x314>
    3938:	2e c0       	rjmp	.+92     	; 0x3996 <remote_instruction+0x2ce>
    393a:	80 32       	cpi	r24, 0x20	; 32
    393c:	d9 f0       	breq	.+54     	; 0x3974 <remote_instruction+0x2ac>
    393e:	81 32       	cpi	r24, 0x21	; 33
    3940:	09 f1       	breq	.+66     	; 0x3984 <remote_instruction+0x2bc>
    3942:	81 31       	cpi	r24, 0x11	; 17
    3944:	09 f0       	breq	.+2      	; 0x3948 <remote_instruction+0x280>
    3946:	4a c0       	rjmp	.+148    	; 0x39dc <remote_instruction+0x314>
    3948:	0c c0       	rjmp	.+24     	; 0x3962 <remote_instruction+0x29a>
    394a:	80 91 6f 04 	lds	r24, 0x046F	; 0x80046f <Score_home>
    394e:	8f 5f       	subi	r24, 0xFF	; 255
    3950:	84 36       	cpi	r24, 0x64	; 100
    3952:	68 f0       	brcs	.+26     	; 0x396e <remote_instruction+0x2a6>
    3954:	10 92 6f 04 	sts	0x046F, r1	; 0x80046f <Score_home>
    3958:	0e 94 c8 0a 	call	0x1590	; 0x1590 <update_score_display>
    395c:	0e 94 d2 08 	call	0x11a4	; 0x11a4 <timer_display>
    3960:	46 c0       	rjmp	.+140    	; 0x39ee <remote_instruction+0x326>
    3962:	80 91 6f 04 	lds	r24, 0x046F	; 0x80046f <Score_home>
    3966:	81 50       	subi	r24, 0x01	; 1
    3968:	84 36       	cpi	r24, 0x64	; 100
    396a:	08 f0       	brcs	.+2      	; 0x396e <remote_instruction+0x2a6>
    396c:	83 e6       	ldi	r24, 0x63	; 99
    396e:	80 93 6f 04 	sts	0x046F, r24	; 0x80046f <Score_home>
    3972:	f2 cf       	rjmp	.-28     	; 0x3958 <remote_instruction+0x290>
    3974:	80 91 6e 04 	lds	r24, 0x046E	; 0x80046e <Score_guest>
    3978:	8f 5f       	subi	r24, 0xFF	; 255
    397a:	84 36       	cpi	r24, 0x64	; 100
    397c:	48 f0       	brcs	.+18     	; 0x3990 <remote_instruction+0x2c8>
    397e:	10 92 6e 04 	sts	0x046E, r1	; 0x80046e <Score_guest>
    3982:	ea cf       	rjmp	.-44     	; 0x3958 <remote_instruction+0x290>
    3984:	80 91 6e 04 	lds	r24, 0x046E	; 0x80046e <Score_guest>
    3988:	81 50       	subi	r24, 0x01	; 1
    398a:	84 36       	cpi	r24, 0x64	; 100
    398c:	08 f0       	brcs	.+2      	; 0x3990 <remote_instruction+0x2c8>
    398e:	83 e6       	ldi	r24, 0x63	; 99
    3990:	80 93 6e 04 	sts	0x046E, r24	; 0x80046e <Score_guest>
    3994:	e1 cf       	rjmp	.-62     	; 0x3958 <remote_instruction+0x290>
    3996:	80 91 87 04 	lds	r24, 0x0487	; 0x800487 <display_out_buf+0x8>
    399a:	8f 5f       	subi	r24, 0xFF	; 255
    399c:	8a 30       	cpi	r24, 0x0A	; 10
    399e:	18 f4       	brcc	.+6      	; 0x39a6 <remote_instruction+0x2de>
    39a0:	80 93 87 04 	sts	0x0487, r24	; 0x800487 <display_out_buf+0x8>
    39a4:	02 c0       	rjmp	.+4      	; 0x39aa <remote_instruction+0x2e2>
    39a6:	10 92 87 04 	sts	0x0487, r1	; 0x800487 <display_out_buf+0x8>
    39aa:	0e 94 84 07 	call	0xf08	; 0xf08 <Display_Out>
    39ae:	1f c0       	rjmp	.+62     	; 0x39ee <remote_instruction+0x326>
    39b0:	80 91 88 04 	lds	r24, 0x0488	; 0x800488 <display_out_buf+0x9>
    39b4:	8f 5f       	subi	r24, 0xFF	; 255
    39b6:	8a 30       	cpi	r24, 0x0A	; 10
    39b8:	18 f4       	brcc	.+6      	; 0x39c0 <remote_instruction+0x2f8>
    39ba:	80 93 88 04 	sts	0x0488, r24	; 0x800488 <display_out_buf+0x9>
    39be:	f5 cf       	rjmp	.-22     	; 0x39aa <remote_instruction+0x2e2>
    39c0:	10 92 88 04 	sts	0x0488, r1	; 0x800488 <display_out_buf+0x9>
    39c4:	f2 cf       	rjmp	.-28     	; 0x39aa <remote_instruction+0x2e2>
    39c6:	80 91 89 04 	lds	r24, 0x0489	; 0x800489 <display_out_buf+0xa>
    39ca:	8f 5f       	subi	r24, 0xFF	; 255
    39cc:	8a 30       	cpi	r24, 0x0A	; 10
    39ce:	18 f4       	brcc	.+6      	; 0x39d6 <remote_instruction+0x30e>
    39d0:	80 93 89 04 	sts	0x0489, r24	; 0x800489 <display_out_buf+0xa>
    39d4:	ea cf       	rjmp	.-44     	; 0x39aa <remote_instruction+0x2e2>
    39d6:	10 92 89 04 	sts	0x0489, r1	; 0x800489 <display_out_buf+0xa>
    39da:	e7 cf       	rjmp	.-50     	; 0x39aa <remote_instruction+0x2e2>
    39dc:	8d 30       	cpi	r24, 0x0D	; 13
    39de:	39 f4       	brne	.+14     	; 0x39ee <remote_instruction+0x326>
    39e0:	88 e9       	ldi	r24, 0x98	; 152
    39e2:	91 e2       	ldi	r25, 0x21	; 33
    39e4:	0e 94 2c 01 	call	0x258	; 0x258 <Buzzer.part.7>
    39e8:	82 e0       	ldi	r24, 0x02	; 2
    39ea:	80 93 1b 04 	sts	0x041B, r24	; 0x80041b <Speaker_delay_open>
    39ee:	0f 90       	pop	r0
    39f0:	0f 90       	pop	r0
    39f2:	df 91       	pop	r29
    39f4:	cf 91       	pop	r28
    39f6:	08 95       	ret

000039f8 <__vector_3>:
    39f8:	1f 92       	push	r1
    39fa:	0f 92       	push	r0
    39fc:	0f b6       	in	r0, 0x3f	; 63
    39fe:	0f 92       	push	r0
    3a00:	11 24       	eor	r1, r1
    3a02:	2f 93       	push	r18
    3a04:	3f 93       	push	r19
    3a06:	4f 93       	push	r20
    3a08:	5f 93       	push	r21
    3a0a:	6f 93       	push	r22
    3a0c:	7f 93       	push	r23
    3a0e:	8f 93       	push	r24
    3a10:	9f 93       	push	r25
    3a12:	af 93       	push	r26
    3a14:	bf 93       	push	r27
    3a16:	cf 93       	push	r28
    3a18:	ef 93       	push	r30
    3a1a:	ff 93       	push	r31
    3a1c:	80 91 84 00 	lds	r24, 0x0084	; 0x800084 <__TEXT_REGION_LENGTH__+0x7f8084>
    3a20:	90 91 85 00 	lds	r25, 0x0085	; 0x800085 <__TEXT_REGION_LENGTH__+0x7f8085>
    3a24:	1a 99       	sbic	0x03, 2	; 3
    3a26:	02 c0       	rjmp	.+4      	; 0x3a2c <__vector_3+0x34>
    3a28:	c0 e0       	ldi	r28, 0x00	; 0
    3a2a:	01 c0       	rjmp	.+2      	; 0x3a2e <__vector_3+0x36>
    3a2c:	c2 e0       	ldi	r28, 0x02	; 2
    3a2e:	9c 01       	movw	r18, r24
    3a30:	27 53       	subi	r18, 0x37	; 55
    3a32:	35 40       	sbci	r19, 0x05	; 5
    3a34:	27 37       	cpi	r18, 0x77	; 119
    3a36:	33 40       	sbci	r19, 0x03	; 3
    3a38:	10 f4       	brcc	.+4      	; 0x3a3e <__vector_3+0x46>
    3a3a:	cc 5f       	subi	r28, 0xFC	; 252
    3a3c:	07 c0       	rjmp	.+14     	; 0x3a4c <__vector_3+0x54>
    3a3e:	8c 5b       	subi	r24, 0xBC	; 188
    3a40:	91 40       	sbci	r25, 0x01	; 1
    3a42:	8a 37       	cpi	r24, 0x7A	; 122
    3a44:	93 40       	sbci	r25, 0x03	; 3
    3a46:	10 f0       	brcs	.+4      	; 0x3a4c <__vector_3+0x54>
    3a48:	0e 94 db 01 	call	0x3b6	; 0x3b6 <RC5_Reset>
    3a4c:	80 91 02 01 	lds	r24, 0x0102	; 0x800102 <state>
    3a50:	85 30       	cpi	r24, 0x05	; 5
    3a52:	e1 f4       	brne	.+56     	; 0x3a8c <__vector_3+0x94>
    3a54:	80 91 d3 04 	lds	r24, 0x04D3	; 0x8004d3 <ccounter>
    3a58:	81 50       	subi	r24, 0x01	; 1
    3a5a:	80 93 d3 04 	sts	0x04D3, r24	; 0x8004d3 <ccounter>
    3a5e:	20 91 d0 04 	lds	r18, 0x04D0	; 0x8004d0 <command>
    3a62:	30 91 d1 04 	lds	r19, 0x04D1	; 0x8004d1 <command+0x1>
    3a66:	41 e0       	ldi	r20, 0x01	; 1
    3a68:	50 e0       	ldi	r21, 0x00	; 0
    3a6a:	fa 01       	movw	r30, r20
    3a6c:	02 c0       	rjmp	.+4      	; 0x3a72 <__vector_3+0x7a>
    3a6e:	ee 0f       	add	r30, r30
    3a70:	ff 1f       	adc	r31, r31
    3a72:	8a 95       	dec	r24
    3a74:	e2 f7       	brpl	.-8      	; 0x3a6e <__vector_3+0x76>
    3a76:	cf 01       	movw	r24, r30
    3a78:	82 2b       	or	r24, r18
    3a7a:	93 2b       	or	r25, r19
    3a7c:	90 93 d1 04 	sts	0x04D1, r25	; 0x8004d1 <command+0x1>
    3a80:	80 93 d0 04 	sts	0x04D0, r24	; 0x8004d0 <command>
    3a84:	81 e0       	ldi	r24, 0x01	; 1
    3a86:	80 93 02 01 	sts	0x0102, r24	; 0x800102 <state>
    3a8a:	45 c0       	rjmp	.+138    	; 0x3b16 <__vector_3+0x11e>
    3a8c:	e8 2f       	mov	r30, r24
    3a8e:	f0 e0       	ldi	r31, 0x00	; 0
    3a90:	e6 5f       	subi	r30, 0xF6	; 246
    3a92:	fe 4f       	sbci	r31, 0xFE	; 254
    3a94:	20 81       	ld	r18, Z
    3a96:	30 e0       	ldi	r19, 0x00	; 0
    3a98:	02 c0       	rjmp	.+4      	; 0x3a9e <__vector_3+0xa6>
    3a9a:	35 95       	asr	r19
    3a9c:	27 95       	ror	r18
    3a9e:	ca 95       	dec	r28
    3aa0:	e2 f7       	brpl	.-8      	; 0x3a9a <__vector_3+0xa2>
    3aa2:	92 2f       	mov	r25, r18
    3aa4:	93 70       	andi	r25, 0x03	; 3
    3aa6:	89 17       	cp	r24, r25
    3aa8:	11 f0       	breq	.+4      	; 0x3aae <__vector_3+0xb6>
    3aaa:	84 30       	cpi	r24, 0x04	; 4
    3aac:	18 f0       	brcs	.+6      	; 0x3ab4 <__vector_3+0xbc>
    3aae:	0e 94 db 01 	call	0x3b6	; 0x3b6 <RC5_Reset>
    3ab2:	35 c0       	rjmp	.+106    	; 0x3b1e <__vector_3+0x126>
    3ab4:	90 93 02 01 	sts	0x0102, r25	; 0x800102 <state>
    3ab8:	80 91 d3 04 	lds	r24, 0x04D3	; 0x8004d3 <ccounter>
    3abc:	92 30       	cpi	r25, 0x02	; 2
    3abe:	21 f4       	brne	.+8      	; 0x3ac8 <__vector_3+0xd0>
    3ac0:	81 50       	subi	r24, 0x01	; 1
    3ac2:	80 93 d3 04 	sts	0x04D3, r24	; 0x8004d3 <ccounter>
    3ac6:	18 c0       	rjmp	.+48     	; 0x3af8 <__vector_3+0x100>
    3ac8:	91 30       	cpi	r25, 0x01	; 1
    3aca:	b1 f4       	brne	.+44     	; 0x3af8 <__vector_3+0x100>
    3acc:	81 50       	subi	r24, 0x01	; 1
    3ace:	80 93 d3 04 	sts	0x04D3, r24	; 0x8004d3 <ccounter>
    3ad2:	40 91 d0 04 	lds	r20, 0x04D0	; 0x8004d0 <command>
    3ad6:	50 91 d1 04 	lds	r21, 0x04D1	; 0x8004d1 <command+0x1>
    3ada:	61 e0       	ldi	r22, 0x01	; 1
    3adc:	70 e0       	ldi	r23, 0x00	; 0
    3ade:	fb 01       	movw	r30, r22
    3ae0:	02 c0       	rjmp	.+4      	; 0x3ae6 <__vector_3+0xee>
    3ae2:	ee 0f       	add	r30, r30
    3ae4:	ff 1f       	adc	r31, r31
    3ae6:	8a 95       	dec	r24
    3ae8:	e2 f7       	brpl	.-8      	; 0x3ae2 <__vector_3+0xea>
    3aea:	cf 01       	movw	r24, r30
    3aec:	84 2b       	or	r24, r20
    3aee:	95 2b       	or	r25, r21
    3af0:	90 93 d1 04 	sts	0x04D1, r25	; 0x8004d1 <command+0x1>
    3af4:	80 93 d0 04 	sts	0x04D0, r24	; 0x8004d0 <command>
    3af8:	80 91 d3 04 	lds	r24, 0x04D3	; 0x8004d3 <ccounter>
    3afc:	81 11       	cpse	r24, r1
    3afe:	0b c0       	rjmp	.+22     	; 0x3b16 <__vector_3+0x11e>
    3b00:	20 fd       	sbrc	r18, 0
    3b02:	09 c0       	rjmp	.+18     	; 0x3b16 <__vector_3+0x11e>
    3b04:	86 e0       	ldi	r24, 0x06	; 6
    3b06:	80 93 02 01 	sts	0x0102, r24	; 0x800102 <state>
    3b0a:	81 e0       	ldi	r24, 0x01	; 1
    3b0c:	80 93 d2 04 	sts	0x04D2, r24	; 0x8004d2 <has_new>
    3b10:	ea 98       	cbi	0x1d, 2	; 29
    3b12:	0e 94 64 1b 	call	0x36c8	; 0x36c8 <remote_instruction>
    3b16:	10 92 85 00 	sts	0x0085, r1	; 0x800085 <__TEXT_REGION_LENGTH__+0x7f8085>
    3b1a:	10 92 84 00 	sts	0x0084, r1	; 0x800084 <__TEXT_REGION_LENGTH__+0x7f8084>
    3b1e:	ff 91       	pop	r31
    3b20:	ef 91       	pop	r30
    3b22:	cf 91       	pop	r28
    3b24:	bf 91       	pop	r27
    3b26:	af 91       	pop	r26
    3b28:	9f 91       	pop	r25
    3b2a:	8f 91       	pop	r24
    3b2c:	7f 91       	pop	r23
    3b2e:	6f 91       	pop	r22
    3b30:	5f 91       	pop	r21
    3b32:	4f 91       	pop	r20
    3b34:	3f 91       	pop	r19
    3b36:	2f 91       	pop	r18
    3b38:	0f 90       	pop	r0
    3b3a:	0f be       	out	0x3f, r0	; 63
    3b3c:	0f 90       	pop	r0
    3b3e:	1f 90       	pop	r1
    3b40:	18 95       	reti

00003b42 <rf_instruction>:
    3b42:	cf 93       	push	r28
    3b44:	c8 2f       	mov	r28, r24
    3b46:	8c e0       	ldi	r24, 0x0C	; 12
    3b48:	90 e0       	ldi	r25, 0x00	; 0
    3b4a:	0e 94 24 24 	call	0x4848	; 0x4848 <eeprom_read_byte>
    3b4e:	88 23       	and	r24, r24
    3b50:	09 f4       	brne	.+2      	; 0x3b54 <rf_instruction+0x12>
    3b52:	9f c0       	rjmp	.+318    	; 0x3c92 <rf_instruction+0x150>
    3b54:	c2 30       	cpi	r28, 0x02	; 2
    3b56:	61 f0       	breq	.+24     	; 0x3b70 <rf_instruction+0x2e>
    3b58:	20 f4       	brcc	.+8      	; 0x3b62 <rf_instruction+0x20>
    3b5a:	c1 30       	cpi	r28, 0x01	; 1
    3b5c:	09 f4       	brne	.+2      	; 0x3b60 <rf_instruction+0x1e>
    3b5e:	70 c0       	rjmp	.+224    	; 0x3c40 <rf_instruction+0xfe>
    3b60:	ae c0       	rjmp	.+348    	; 0x3cbe <rf_instruction+0x17c>
    3b62:	c4 30       	cpi	r28, 0x04	; 4
    3b64:	09 f4       	brne	.+2      	; 0x3b68 <rf_instruction+0x26>
    3b66:	8e c0       	rjmp	.+284    	; 0x3c84 <rf_instruction+0x142>
    3b68:	c8 30       	cpi	r28, 0x08	; 8
    3b6a:	09 f4       	brne	.+2      	; 0x3b6e <rf_instruction+0x2c>
    3b6c:	40 c0       	rjmp	.+128    	; 0x3bee <rf_instruction+0xac>
    3b6e:	a7 c0       	rjmp	.+334    	; 0x3cbe <rf_instruction+0x17c>
    3b70:	80 91 1d 04 	lds	r24, 0x041D	; 0x80041d <Game_on>
    3b74:	88 23       	and	r24, r24
    3b76:	49 f0       	breq	.+18     	; 0x3b8a <rf_instruction+0x48>
    3b78:	80 91 2d 04 	lds	r24, 0x042D	; 0x80042d <Timer_Butt_Minus>
    3b7c:	90 91 2e 04 	lds	r25, 0x042E	; 0x80042e <Timer_Butt_Minus+0x1>
    3b80:	89 2b       	or	r24, r25
    3b82:	19 f4       	brne	.+6      	; 0x3b8a <rf_instruction+0x48>
    3b84:	87 e1       	ldi	r24, 0x17	; 23
    3b86:	90 e0       	ldi	r25, 0x00	; 0
    3b88:	14 c0       	rjmp	.+40     	; 0x3bb2 <rf_instruction+0x70>
    3b8a:	80 91 2b 04 	lds	r24, 0x042B	; 0x80042b <Timer_Butt_Start>
    3b8e:	90 91 2c 04 	lds	r25, 0x042C	; 0x80042c <Timer_Butt_Start+0x1>
    3b92:	89 2b       	or	r24, r25
    3b94:	b9 f0       	breq	.+46     	; 0x3bc4 <rf_instruction+0x82>
    3b96:	8b e0       	ldi	r24, 0x0B	; 11
    3b98:	90 e0       	ldi	r25, 0x00	; 0
    3b9a:	0e 94 24 24 	call	0x4848	; 0x4848 <eeprom_read_byte>
    3b9e:	81 30       	cpi	r24, 0x01	; 1
    3ba0:	69 f0       	breq	.+26     	; 0x3bbc <rf_instruction+0x7a>
    3ba2:	10 f0       	brcs	.+4      	; 0x3ba8 <rf_instruction+0x66>
    3ba4:	82 30       	cpi	r24, 0x02	; 2
    3ba6:	61 f0       	breq	.+24     	; 0x3bc0 <rf_instruction+0x7e>
    3ba8:	85 e5       	ldi	r24, 0x55	; 85
    3baa:	80 93 30 04 	sts	0x0430, r24	; 0x800430 <user_instruction>
    3bae:	8f ef       	ldi	r24, 0xFF	; 255
    3bb0:	9f ef       	ldi	r25, 0xFF	; 255
    3bb2:	90 93 06 01 	sts	0x0106, r25	; 0x800106 <key+0x1>
    3bb6:	80 93 05 01 	sts	0x0105, r24	; 0x800105 <key>
    3bba:	81 c0       	rjmp	.+258    	; 0x3cbe <rf_instruction+0x17c>
    3bbc:	81 e4       	ldi	r24, 0x41	; 65
    3bbe:	f5 cf       	rjmp	.-22     	; 0x3baa <rf_instruction+0x68>
    3bc0:	82 e4       	ldi	r24, 0x42	; 66
    3bc2:	f3 cf       	rjmp	.-26     	; 0x3baa <rf_instruction+0x68>
    3bc4:	80 91 2d 04 	lds	r24, 0x042D	; 0x80042d <Timer_Butt_Minus>
    3bc8:	90 91 2e 04 	lds	r25, 0x042E	; 0x80042e <Timer_Butt_Minus+0x1>
    3bcc:	89 2b       	or	r24, r25
    3bce:	41 f0       	breq	.+16     	; 0x3be0 <rf_instruction+0x9e>
    3bd0:	10 92 30 04 	sts	0x0430, r1	; 0x800430 <user_instruction>
    3bd4:	10 92 1e 04 	sts	0x041E, r1	; 0x80041e <Set_countdown_bank>
    3bd8:	81 e0       	ldi	r24, 0x01	; 1
    3bda:	cf 91       	pop	r28
    3bdc:	0c 94 0e 0b 	jmp	0x161c	; 0x161c <display_init>
    3be0:	80 ea       	ldi	r24, 0xA0	; 160
    3be2:	9f e0       	ldi	r25, 0x0F	; 15
    3be4:	90 93 2c 04 	sts	0x042C, r25	; 0x80042c <Timer_Butt_Start+0x1>
    3be8:	80 93 2b 04 	sts	0x042B, r24	; 0x80042b <Timer_Butt_Start>
    3bec:	68 c0       	rjmp	.+208    	; 0x3cbe <rf_instruction+0x17c>
    3bee:	80 91 1d 04 	lds	r24, 0x041D	; 0x80041d <Game_on>
    3bf2:	88 23       	and	r24, r24
    3bf4:	09 f4       	brne	.+2      	; 0x3bf8 <rf_instruction+0xb6>
    3bf6:	63 c0       	rjmp	.+198    	; 0x3cbe <rf_instruction+0x17c>
    3bf8:	20 91 2d 04 	lds	r18, 0x042D	; 0x80042d <Timer_Butt_Minus>
    3bfc:	30 91 2e 04 	lds	r19, 0x042E	; 0x80042e <Timer_Butt_Minus+0x1>
    3c00:	80 91 6f 04 	lds	r24, 0x046F	; 0x80046f <Score_home>
    3c04:	23 2b       	or	r18, r19
    3c06:	79 f0       	breq	.+30     	; 0x3c26 <rf_instruction+0xe4>
    3c08:	20 ea       	ldi	r18, 0xA0	; 160
    3c0a:	3f e0       	ldi	r19, 0x0F	; 15
    3c0c:	30 93 2e 04 	sts	0x042E, r19	; 0x80042e <Timer_Butt_Minus+0x1>
    3c10:	20 93 2d 04 	sts	0x042D, r18	; 0x80042d <Timer_Butt_Minus>
    3c14:	81 50       	subi	r24, 0x01	; 1
    3c16:	84 36       	cpi	r24, 0x64	; 100
    3c18:	08 f0       	brcs	.+2      	; 0x3c1c <rf_instruction+0xda>
    3c1a:	83 e6       	ldi	r24, 0x63	; 99
    3c1c:	80 93 6f 04 	sts	0x046F, r24	; 0x80046f <Score_home>
    3c20:	0e 94 c8 0a 	call	0x1590	; 0x1590 <update_score_display>
    3c24:	08 c0       	rjmp	.+16     	; 0x3c36 <rf_instruction+0xf4>
    3c26:	8f 5f       	subi	r24, 0xFF	; 255
    3c28:	84 36       	cpi	r24, 0x64	; 100
    3c2a:	18 f4       	brcc	.+6      	; 0x3c32 <rf_instruction+0xf0>
    3c2c:	80 93 6f 04 	sts	0x046F, r24	; 0x80046f <Score_home>
    3c30:	02 c0       	rjmp	.+4      	; 0x3c36 <rf_instruction+0xf4>
    3c32:	10 92 6f 04 	sts	0x046F, r1	; 0x80046f <Score_home>
    3c36:	0e 94 c8 0a 	call	0x1590	; 0x1590 <update_score_display>
    3c3a:	cf 91       	pop	r28
    3c3c:	0c 94 d2 08 	jmp	0x11a4	; 0x11a4 <timer_display>
    3c40:	80 91 1d 04 	lds	r24, 0x041D	; 0x80041d <Game_on>
    3c44:	88 23       	and	r24, r24
    3c46:	d9 f1       	breq	.+118    	; 0x3cbe <rf_instruction+0x17c>
    3c48:	20 91 2d 04 	lds	r18, 0x042D	; 0x80042d <Timer_Butt_Minus>
    3c4c:	30 91 2e 04 	lds	r19, 0x042E	; 0x80042e <Timer_Butt_Minus+0x1>
    3c50:	80 91 6e 04 	lds	r24, 0x046E	; 0x80046e <Score_guest>
    3c54:	23 2b       	or	r18, r19
    3c56:	69 f0       	breq	.+26     	; 0x3c72 <rf_instruction+0x130>
    3c58:	20 ea       	ldi	r18, 0xA0	; 160
    3c5a:	3f e0       	ldi	r19, 0x0F	; 15
    3c5c:	30 93 2e 04 	sts	0x042E, r19	; 0x80042e <Timer_Butt_Minus+0x1>
    3c60:	20 93 2d 04 	sts	0x042D, r18	; 0x80042d <Timer_Butt_Minus>
    3c64:	81 50       	subi	r24, 0x01	; 1
    3c66:	84 36       	cpi	r24, 0x64	; 100
    3c68:	08 f0       	brcs	.+2      	; 0x3c6c <rf_instruction+0x12a>
    3c6a:	83 e6       	ldi	r24, 0x63	; 99
    3c6c:	80 93 6e 04 	sts	0x046E, r24	; 0x80046e <Score_guest>
    3c70:	d7 cf       	rjmp	.-82     	; 0x3c20 <rf_instruction+0xde>
    3c72:	8f 5f       	subi	r24, 0xFF	; 255
    3c74:	84 36       	cpi	r24, 0x64	; 100
    3c76:	18 f4       	brcc	.+6      	; 0x3c7e <rf_instruction+0x13c>
    3c78:	80 93 6e 04 	sts	0x046E, r24	; 0x80046e <Score_guest>
    3c7c:	dc cf       	rjmp	.-72     	; 0x3c36 <rf_instruction+0xf4>
    3c7e:	10 92 6e 04 	sts	0x046E, r1	; 0x80046e <Score_guest>
    3c82:	d9 cf       	rjmp	.-78     	; 0x3c36 <rf_instruction+0xf4>
    3c84:	80 ea       	ldi	r24, 0xA0	; 160
    3c86:	9f e0       	ldi	r25, 0x0F	; 15
    3c88:	90 93 2e 04 	sts	0x042E, r25	; 0x80042e <Timer_Butt_Minus+0x1>
    3c8c:	80 93 2d 04 	sts	0x042D, r24	; 0x80042d <Timer_Butt_Minus>
    3c90:	16 c0       	rjmp	.+44     	; 0x3cbe <rf_instruction+0x17c>
    3c92:	80 91 1d 04 	lds	r24, 0x041D	; 0x80041d <Game_on>
    3c96:	88 23       	and	r24, r24
    3c98:	91 f0       	breq	.+36     	; 0x3cbe <rf_instruction+0x17c>
    3c9a:	c2 30       	cpi	r28, 0x02	; 2
    3c9c:	51 f0       	breq	.+20     	; 0x3cb2 <rf_instruction+0x170>
    3c9e:	18 f4       	brcc	.+6      	; 0x3ca6 <rf_instruction+0x164>
    3ca0:	c1 30       	cpi	r28, 0x01	; 1
    3ca2:	39 f0       	breq	.+14     	; 0x3cb2 <rf_instruction+0x170>
    3ca4:	0c c0       	rjmp	.+24     	; 0x3cbe <rf_instruction+0x17c>
    3ca6:	c4 30       	cpi	r28, 0x04	; 4
    3ca8:	39 f0       	breq	.+14     	; 0x3cb8 <rf_instruction+0x176>
    3caa:	c8 30       	cpi	r28, 0x08	; 8
    3cac:	41 f4       	brne	.+16     	; 0x3cbe <rf_instruction+0x17c>
    3cae:	84 e0       	ldi	r24, 0x04	; 4
    3cb0:	04 c0       	rjmp	.+8      	; 0x3cba <rf_instruction+0x178>
    3cb2:	c0 93 2f 04 	sts	0x042F, r28	; 0x80042f <Button_Key>
    3cb6:	03 c0       	rjmp	.+6      	; 0x3cbe <rf_instruction+0x17c>
    3cb8:	83 e0       	ldi	r24, 0x03	; 3
    3cba:	80 93 2f 04 	sts	0x042F, r24	; 0x80042f <Button_Key>
    3cbe:	cf 91       	pop	r28
    3cc0:	08 95       	ret

00003cc2 <__vector_7>:
    3cc2:	1f 92       	push	r1
    3cc4:	0f 92       	push	r0
    3cc6:	0f b6       	in	r0, 0x3f	; 63
    3cc8:	0f 92       	push	r0
    3cca:	11 24       	eor	r1, r1
    3ccc:	2f 93       	push	r18
    3cce:	3f 93       	push	r19
    3cd0:	4f 93       	push	r20
    3cd2:	5f 93       	push	r21
    3cd4:	6f 93       	push	r22
    3cd6:	7f 93       	push	r23
    3cd8:	8f 93       	push	r24
    3cda:	9f 93       	push	r25
    3cdc:	af 93       	push	r26
    3cde:	bf 93       	push	r27
    3ce0:	ef 93       	push	r30
    3ce2:	ff 93       	push	r31
    3ce4:	89 b1       	in	r24, 0x09	; 9
    3ce6:	80 95       	com	r24
    3ce8:	82 95       	swap	r24
    3cea:	8f 70       	andi	r24, 0x0F	; 15
    3cec:	90 e0       	ldi	r25, 0x00	; 0
    3cee:	0e 94 a1 1d 	call	0x3b42	; 0x3b42 <rf_instruction>
    3cf2:	ff 91       	pop	r31
    3cf4:	ef 91       	pop	r30
    3cf6:	bf 91       	pop	r27
    3cf8:	af 91       	pop	r26
    3cfa:	9f 91       	pop	r25
    3cfc:	8f 91       	pop	r24
    3cfe:	7f 91       	pop	r23
    3d00:	6f 91       	pop	r22
    3d02:	5f 91       	pop	r21
    3d04:	4f 91       	pop	r20
    3d06:	3f 91       	pop	r19
    3d08:	2f 91       	pop	r18
    3d0a:	0f 90       	pop	r0
    3d0c:	0f be       	out	0x3f, r0	; 63
    3d0e:	0f 90       	pop	r0
    3d10:	1f 90       	pop	r1
    3d12:	18 95       	reti

00003d14 <Buttons_Score>:
    3d14:	80 91 2f 04 	lds	r24, 0x042F	; 0x80042f <Button_Key>
    3d18:	82 30       	cpi	r24, 0x02	; 2
    3d1a:	89 f0       	breq	.+34     	; 0x3d3e <Buttons_Score+0x2a>
    3d1c:	1c f4       	brge	.+6      	; 0x3d24 <Buttons_Score+0x10>
    3d1e:	81 30       	cpi	r24, 0x01	; 1
    3d20:	31 f0       	breq	.+12     	; 0x3d2e <Buttons_Score+0x1a>
    3d22:	26 c0       	rjmp	.+76     	; 0x3d70 <Buttons_Score+0x5c>
    3d24:	83 30       	cpi	r24, 0x03	; 3
    3d26:	a1 f0       	breq	.+40     	; 0x3d50 <Buttons_Score+0x3c>
    3d28:	84 30       	cpi	r24, 0x04	; 4
    3d2a:	d1 f0       	breq	.+52     	; 0x3d60 <Buttons_Score+0x4c>
    3d2c:	21 c0       	rjmp	.+66     	; 0x3d70 <Buttons_Score+0x5c>
    3d2e:	80 91 6f 04 	lds	r24, 0x046F	; 0x80046f <Score_home>
    3d32:	8f 5f       	subi	r24, 0xFF	; 255
    3d34:	84 36       	cpi	r24, 0x64	; 100
    3d36:	48 f0       	brcs	.+18     	; 0x3d4a <Buttons_Score+0x36>
    3d38:	10 92 6f 04 	sts	0x046F, r1	; 0x80046f <Score_home>
    3d3c:	19 c0       	rjmp	.+50     	; 0x3d70 <Buttons_Score+0x5c>
    3d3e:	80 91 6f 04 	lds	r24, 0x046F	; 0x80046f <Score_home>
    3d42:	81 50       	subi	r24, 0x01	; 1
    3d44:	84 36       	cpi	r24, 0x64	; 100
    3d46:	08 f0       	brcs	.+2      	; 0x3d4a <Buttons_Score+0x36>
    3d48:	83 e6       	ldi	r24, 0x63	; 99
    3d4a:	80 93 6f 04 	sts	0x046F, r24	; 0x80046f <Score_home>
    3d4e:	10 c0       	rjmp	.+32     	; 0x3d70 <Buttons_Score+0x5c>
    3d50:	80 91 6e 04 	lds	r24, 0x046E	; 0x80046e <Score_guest>
    3d54:	8f 5f       	subi	r24, 0xFF	; 255
    3d56:	84 36       	cpi	r24, 0x64	; 100
    3d58:	48 f0       	brcs	.+18     	; 0x3d6c <Buttons_Score+0x58>
    3d5a:	10 92 6e 04 	sts	0x046E, r1	; 0x80046e <Score_guest>
    3d5e:	08 c0       	rjmp	.+16     	; 0x3d70 <Buttons_Score+0x5c>
    3d60:	80 91 6e 04 	lds	r24, 0x046E	; 0x80046e <Score_guest>
    3d64:	81 50       	subi	r24, 0x01	; 1
    3d66:	84 36       	cpi	r24, 0x64	; 100
    3d68:	08 f0       	brcs	.+2      	; 0x3d6c <Buttons_Score+0x58>
    3d6a:	83 e6       	ldi	r24, 0x63	; 99
    3d6c:	80 93 6e 04 	sts	0x046E, r24	; 0x80046e <Score_guest>
    3d70:	0e 94 c8 0a 	call	0x1590	; 0x1590 <update_score_display>
    3d74:	0e 94 d2 08 	call	0x11a4	; 0x11a4 <timer_display>
    3d78:	83 e0       	ldi	r24, 0x03	; 3
    3d7a:	2f ef       	ldi	r18, 0xFF	; 255
    3d7c:	39 ef       	ldi	r19, 0xF9	; 249
    3d7e:	90 e0       	ldi	r25, 0x00	; 0
    3d80:	21 50       	subi	r18, 0x01	; 1
    3d82:	30 40       	sbci	r19, 0x00	; 0
    3d84:	90 40       	sbci	r25, 0x00	; 0
    3d86:	e1 f7       	brne	.-8      	; 0x3d80 <Buttons_Score+0x6c>
    3d88:	00 c0       	rjmp	.+0      	; 0x3d8a <Buttons_Score+0x76>
    3d8a:	00 00       	nop
    3d8c:	a8 95       	wdr
    3d8e:	99 b1       	in	r25, 0x09	; 9
    3d90:	92 95       	swap	r25
    3d92:	9f 70       	andi	r25, 0x0F	; 15
    3d94:	9f 30       	cpi	r25, 0x0F	; 15
    3d96:	d1 f7       	brne	.-12     	; 0x3d8c <Buttons_Score+0x78>
    3d98:	81 50       	subi	r24, 0x01	; 1
    3d9a:	79 f7       	brne	.-34     	; 0x3d7a <Buttons_Score+0x66>
    3d9c:	10 92 2f 04 	sts	0x042F, r1	; 0x80042f <Button_Key>
    3da0:	08 95       	ret

00003da2 <Counter_down>:
    3da2:	0f 93       	push	r16
    3da4:	1f 93       	push	r17
    3da6:	cf 93       	push	r28
    3da8:	2f ef       	ldi	r18, 0xFF	; 255
    3daa:	3f ef       	ldi	r19, 0xFF	; 255
    3dac:	30 93 06 01 	sts	0x0106, r19	; 0x800106 <key+0x1>
    3db0:	20 93 05 01 	sts	0x0105, r18	; 0x800105 <key>
    3db4:	10 92 b2 00 	sts	0x00B2, r1	; 0x8000b2 <__TEXT_REGION_LENGTH__+0x7f80b2>
    3db8:	90 e8       	ldi	r25, 0x80	; 128
    3dba:	90 93 20 04 	sts	0x0420, r25	; 0x800420 <Timer_blink_on>
    3dbe:	81 30       	cpi	r24, 0x01	; 1
    3dc0:	79 f4       	brne	.+30     	; 0x3de0 <Counter_down+0x3e>
    3dc2:	80 e1       	ldi	r24, 0x10	; 16
    3dc4:	90 e0       	ldi	r25, 0x00	; 0
    3dc6:	0e 94 24 24 	call	0x4848	; 0x4848 <eeprom_read_byte>
    3dca:	80 93 76 04 	sts	0x0476, r24	; 0x800476 <timer>
    3dce:	81 e1       	ldi	r24, 0x11	; 17
    3dd0:	90 e0       	ldi	r25, 0x00	; 0
    3dd2:	0e 94 24 24 	call	0x4848	; 0x4848 <eeprom_read_byte>
    3dd6:	80 93 77 04 	sts	0x0477, r24	; 0x800477 <timer+0x1>
    3dda:	82 e1       	ldi	r24, 0x12	; 18
    3ddc:	90 e0       	ldi	r25, 0x00	; 0
    3dde:	10 c0       	rjmp	.+32     	; 0x3e00 <Counter_down+0x5e>
    3de0:	82 30       	cpi	r24, 0x02	; 2
    3de2:	91 f4       	brne	.+36     	; 0x3e08 <Counter_down+0x66>
    3de4:	83 e1       	ldi	r24, 0x13	; 19
    3de6:	90 e0       	ldi	r25, 0x00	; 0
    3de8:	0e 94 24 24 	call	0x4848	; 0x4848 <eeprom_read_byte>
    3dec:	80 93 76 04 	sts	0x0476, r24	; 0x800476 <timer>
    3df0:	84 e1       	ldi	r24, 0x14	; 20
    3df2:	90 e0       	ldi	r25, 0x00	; 0
    3df4:	0e 94 24 24 	call	0x4848	; 0x4848 <eeprom_read_byte>
    3df8:	80 93 77 04 	sts	0x0477, r24	; 0x800477 <timer+0x1>
    3dfc:	85 e1       	ldi	r24, 0x15	; 21
    3dfe:	90 e0       	ldi	r25, 0x00	; 0
    3e00:	0e 94 24 24 	call	0x4848	; 0x4848 <eeprom_read_byte>
    3e04:	80 93 78 04 	sts	0x0478, r24	; 0x800478 <timer+0x2>
    3e08:	0e 94 d2 08 	call	0x11a4	; 0x11a4 <timer_display>
    3e0c:	c5 e0       	ldi	r28, 0x05	; 5
    3e0e:	0f ef       	ldi	r16, 0xFF	; 255
    3e10:	1f ef       	ldi	r17, 0xFF	; 255
    3e12:	80 91 30 04 	lds	r24, 0x0430	; 0x800430 <user_instruction>
    3e16:	88 23       	and	r24, r24
    3e18:	99 f1       	breq	.+102    	; 0x3e80 <Counter_down+0xde>
    3e1a:	80 91 05 01 	lds	r24, 0x0105	; 0x800105 <key>
    3e1e:	90 91 06 01 	lds	r25, 0x0106	; 0x800106 <key+0x1>
    3e22:	47 97       	sbiw	r24, 0x17	; 23
    3e24:	f9 f4       	brne	.+62     	; 0x3e64 <Counter_down+0xc2>
    3e26:	80 91 b1 00 	lds	r24, 0x00B1	; 0x8000b1 <__TEXT_REGION_LENGTH__+0x7f80b1>
    3e2a:	81 11       	cpse	r24, r1
    3e2c:	03 c0       	rjmp	.+6      	; 0x3e34 <Counter_down+0x92>
    3e2e:	c0 93 b1 00 	sts	0x00B1, r28	; 0x8000b1 <__TEXT_REGION_LENGTH__+0x7f80b1>
    3e32:	02 c0       	rjmp	.+4      	; 0x3e38 <Counter_down+0x96>
    3e34:	10 92 b1 00 	sts	0x00B1, r1	; 0x8000b1 <__TEXT_REGION_LENGTH__+0x7f80b1>
    3e38:	10 93 06 01 	sts	0x0106, r17	; 0x800106 <key+0x1>
    3e3c:	00 93 05 01 	sts	0x0105, r16	; 0x800105 <key>
    3e40:	88 e9       	ldi	r24, 0x98	; 152
    3e42:	91 e2       	ldi	r25, 0x21	; 33
    3e44:	0e 94 2c 01 	call	0x258	; 0x258 <Buzzer.part.7>
    3e48:	2f ef       	ldi	r18, 0xFF	; 255
    3e4a:	82 e5       	ldi	r24, 0x52	; 82
    3e4c:	97 e0       	ldi	r25, 0x07	; 7
    3e4e:	21 50       	subi	r18, 0x01	; 1
    3e50:	80 40       	sbci	r24, 0x00	; 0
    3e52:	90 40       	sbci	r25, 0x00	; 0
    3e54:	e1 f7       	brne	.-8      	; 0x3e4e <Counter_down+0xac>
    3e56:	00 c0       	rjmp	.+0      	; 0x3e58 <Counter_down+0xb6>
    3e58:	00 00       	nop
    3e5a:	60 e0       	ldi	r22, 0x00	; 0
    3e5c:	70 e0       	ldi	r23, 0x00	; 0
    3e5e:	80 e0       	ldi	r24, 0x00	; 0
    3e60:	0e 94 59 09 	call	0x12b2	; 0x12b2 <Buzzer>
    3e64:	80 91 2f 04 	lds	r24, 0x042F	; 0x80042f <Button_Key>
    3e68:	81 11       	cpse	r24, r1
    3e6a:	0e 94 8a 1e 	call	0x3d14	; 0x3d14 <Buttons_Score>
    3e6e:	80 91 05 01 	lds	r24, 0x0105	; 0x800105 <key>
    3e72:	90 91 06 01 	lds	r25, 0x0106	; 0x800106 <key+0x1>
    3e76:	8d 97       	sbiw	r24, 0x2d	; 45
    3e78:	61 f6       	brne	.-104    	; 0x3e12 <Counter_down+0x70>
    3e7a:	0e 94 64 1a 	call	0x34c8	; 0x34c8 <Change_Timer>
    3e7e:	c9 cf       	rjmp	.-110    	; 0x3e12 <Counter_down+0x70>
    3e80:	10 92 b1 00 	sts	0x00B1, r1	; 0x8000b1 <__TEXT_REGION_LENGTH__+0x7f80b1>
    3e84:	88 ea       	ldi	r24, 0xA8	; 168
    3e86:	98 e4       	ldi	r25, 0x48	; 72
    3e88:	0e 94 2c 01 	call	0x258	; 0x258 <Buzzer.part.7>
    3e8c:	2f ef       	ldi	r18, 0xFF	; 255
    3e8e:	82 e5       	ldi	r24, 0x52	; 82
    3e90:	97 e0       	ldi	r25, 0x07	; 7
    3e92:	21 50       	subi	r18, 0x01	; 1
    3e94:	80 40       	sbci	r24, 0x00	; 0
    3e96:	90 40       	sbci	r25, 0x00	; 0
    3e98:	e1 f7       	brne	.-8      	; 0x3e92 <Counter_down+0xf0>
    3e9a:	00 c0       	rjmp	.+0      	; 0x3e9c <Counter_down+0xfa>
    3e9c:	00 00       	nop
    3e9e:	60 e0       	ldi	r22, 0x00	; 0
    3ea0:	70 e0       	ldi	r23, 0x00	; 0
    3ea2:	80 e0       	ldi	r24, 0x00	; 0
    3ea4:	cf 91       	pop	r28
    3ea6:	1f 91       	pop	r17
    3ea8:	0f 91       	pop	r16
    3eaa:	0c 94 59 09 	jmp	0x12b2	; 0x12b2 <Buzzer>

00003eae <Up_counter>:
    3eae:	0f 93       	push	r16
    3eb0:	1f 93       	push	r17
    3eb2:	cf 93       	push	r28
    3eb4:	8f ef       	ldi	r24, 0xFF	; 255
    3eb6:	9f ef       	ldi	r25, 0xFF	; 255
    3eb8:	90 93 06 01 	sts	0x0106, r25	; 0x800106 <key+0x1>
    3ebc:	80 93 05 01 	sts	0x0105, r24	; 0x800105 <key>
    3ec0:	10 92 b2 00 	sts	0x00B2, r1	; 0x8000b2 <__TEXT_REGION_LENGTH__+0x7f80b2>
    3ec4:	10 92 76 04 	sts	0x0476, r1	; 0x800476 <timer>
    3ec8:	10 92 77 04 	sts	0x0477, r1	; 0x800477 <timer+0x1>
    3ecc:	10 92 78 04 	sts	0x0478, r1	; 0x800478 <timer+0x2>
    3ed0:	80 e8       	ldi	r24, 0x80	; 128
    3ed2:	80 93 20 04 	sts	0x0420, r24	; 0x800420 <Timer_blink_on>
    3ed6:	0e 94 d2 08 	call	0x11a4	; 0x11a4 <timer_display>
    3eda:	c5 e0       	ldi	r28, 0x05	; 5
    3edc:	0f ef       	ldi	r16, 0xFF	; 255
    3ede:	1f ef       	ldi	r17, 0xFF	; 255
    3ee0:	80 91 30 04 	lds	r24, 0x0430	; 0x800430 <user_instruction>
    3ee4:	88 23       	and	r24, r24
    3ee6:	99 f1       	breq	.+102    	; 0x3f4e <Up_counter+0xa0>
    3ee8:	80 91 05 01 	lds	r24, 0x0105	; 0x800105 <key>
    3eec:	90 91 06 01 	lds	r25, 0x0106	; 0x800106 <key+0x1>
    3ef0:	47 97       	sbiw	r24, 0x17	; 23
    3ef2:	f9 f4       	brne	.+62     	; 0x3f32 <Up_counter+0x84>
    3ef4:	80 91 b1 00 	lds	r24, 0x00B1	; 0x8000b1 <__TEXT_REGION_LENGTH__+0x7f80b1>
    3ef8:	81 11       	cpse	r24, r1
    3efa:	03 c0       	rjmp	.+6      	; 0x3f02 <Up_counter+0x54>
    3efc:	c0 93 b1 00 	sts	0x00B1, r28	; 0x8000b1 <__TEXT_REGION_LENGTH__+0x7f80b1>
    3f00:	02 c0       	rjmp	.+4      	; 0x3f06 <Up_counter+0x58>
    3f02:	10 92 b1 00 	sts	0x00B1, r1	; 0x8000b1 <__TEXT_REGION_LENGTH__+0x7f80b1>
    3f06:	10 93 06 01 	sts	0x0106, r17	; 0x800106 <key+0x1>
    3f0a:	00 93 05 01 	sts	0x0105, r16	; 0x800105 <key>
    3f0e:	88 e9       	ldi	r24, 0x98	; 152
    3f10:	91 e2       	ldi	r25, 0x21	; 33
    3f12:	0e 94 2c 01 	call	0x258	; 0x258 <Buzzer.part.7>
    3f16:	2f ef       	ldi	r18, 0xFF	; 255
    3f18:	82 e5       	ldi	r24, 0x52	; 82
    3f1a:	97 e0       	ldi	r25, 0x07	; 7
    3f1c:	21 50       	subi	r18, 0x01	; 1
    3f1e:	80 40       	sbci	r24, 0x00	; 0
    3f20:	90 40       	sbci	r25, 0x00	; 0
    3f22:	e1 f7       	brne	.-8      	; 0x3f1c <Up_counter+0x6e>
    3f24:	00 c0       	rjmp	.+0      	; 0x3f26 <Up_counter+0x78>
    3f26:	00 00       	nop
    3f28:	60 e0       	ldi	r22, 0x00	; 0
    3f2a:	70 e0       	ldi	r23, 0x00	; 0
    3f2c:	80 e0       	ldi	r24, 0x00	; 0
    3f2e:	0e 94 59 09 	call	0x12b2	; 0x12b2 <Buzzer>
    3f32:	80 91 2f 04 	lds	r24, 0x042F	; 0x80042f <Button_Key>
    3f36:	81 11       	cpse	r24, r1
    3f38:	0e 94 8a 1e 	call	0x3d14	; 0x3d14 <Buttons_Score>
    3f3c:	80 91 05 01 	lds	r24, 0x0105	; 0x800105 <key>
    3f40:	90 91 06 01 	lds	r25, 0x0106	; 0x800106 <key+0x1>
    3f44:	8d 97       	sbiw	r24, 0x2d	; 45
    3f46:	61 f6       	brne	.-104    	; 0x3ee0 <Up_counter+0x32>
    3f48:	0e 94 64 1a 	call	0x34c8	; 0x34c8 <Change_Timer>
    3f4c:	c9 cf       	rjmp	.-110    	; 0x3ee0 <Up_counter+0x32>
    3f4e:	10 92 b1 00 	sts	0x00B1, r1	; 0x8000b1 <__TEXT_REGION_LENGTH__+0x7f80b1>
    3f52:	88 ea       	ldi	r24, 0xA8	; 168
    3f54:	98 e4       	ldi	r25, 0x48	; 72
    3f56:	0e 94 2c 01 	call	0x258	; 0x258 <Buzzer.part.7>
    3f5a:	2f ef       	ldi	r18, 0xFF	; 255
    3f5c:	82 e5       	ldi	r24, 0x52	; 82
    3f5e:	97 e0       	ldi	r25, 0x07	; 7
    3f60:	21 50       	subi	r18, 0x01	; 1
    3f62:	80 40       	sbci	r24, 0x00	; 0
    3f64:	90 40       	sbci	r25, 0x00	; 0
    3f66:	e1 f7       	brne	.-8      	; 0x3f60 <Up_counter+0xb2>
    3f68:	00 c0       	rjmp	.+0      	; 0x3f6a <Up_counter+0xbc>
    3f6a:	00 00       	nop
    3f6c:	60 e0       	ldi	r22, 0x00	; 0
    3f6e:	70 e0       	ldi	r23, 0x00	; 0
    3f70:	80 e0       	ldi	r24, 0x00	; 0
    3f72:	cf 91       	pop	r28
    3f74:	1f 91       	pop	r17
    3f76:	0f 91       	pop	r16
    3f78:	0c 94 59 09 	jmp	0x12b2	; 0x12b2 <Buzzer>

00003f7c <main>:
    3f7c:	99 e2       	ldi	r25, 0x29	; 41
    3f7e:	88 e1       	ldi	r24, 0x18	; 24
    3f80:	0f b6       	in	r0, 0x3f	; 63
    3f82:	f8 94       	cli
    3f84:	a8 95       	wdr
    3f86:	80 93 60 00 	sts	0x0060, r24	; 0x800060 <__TEXT_REGION_LENGTH__+0x7f8060>
    3f8a:	0f be       	out	0x3f, r0	; 63
    3f8c:	90 93 60 00 	sts	0x0060, r25	; 0x800060 <__TEXT_REGION_LENGTH__+0x7f8060>
    3f90:	83 e4       	ldi	r24, 0x43	; 67
    3f92:	8d b9       	out	0x0d, r24	; 13
    3f94:	82 e0       	ldi	r24, 0x02	; 2
    3f96:	8e b9       	out	0x0e, r24	; 14
    3f98:	81 e9       	ldi	r24, 0x91	; 145
    3f9a:	85 b9       	out	0x05, r24	; 5
    3f9c:	89 e6       	ldi	r24, 0x69	; 105
    3f9e:	84 b9       	out	0x04, r24	; 4
    3fa0:	80 ef       	ldi	r24, 0xF0	; 240
    3fa2:	8b b9       	out	0x0b, r24	; 11
    3fa4:	1a b8       	out	0x0a, r1	; 10
    3fa6:	86 e6       	ldi	r24, 0x66	; 102
    3fa8:	80 93 7c 00 	sts	0x007C, r24	; 0x80007c <__TEXT_REGION_LENGTH__+0x7f807c>
    3fac:	80 ee       	ldi	r24, 0xE0	; 224
    3fae:	80 93 7a 00 	sts	0x007A, r24	; 0x80007a <__TEXT_REGION_LENGTH__+0x7f807a>
    3fb2:	84 e0       	ldi	r24, 0x04	; 4
    3fb4:	80 93 7b 00 	sts	0x007B, r24	; 0x80007b <__TEXT_REGION_LENGTH__+0x7f807b>
    3fb8:	8f eb       	ldi	r24, 0xBF	; 191
    3fba:	80 93 7e 00 	sts	0x007E, r24	; 0x80007e <__TEXT_REGION_LENGTH__+0x7f807e>
    3fbe:	88 e0       	ldi	r24, 0x08	; 8
    3fc0:	90 e0       	ldi	r25, 0x00	; 0
    3fc2:	0e 94 24 24 	call	0x4848	; 0x4848 <eeprom_read_byte>
    3fc6:	80 93 cf 04 	sts	0x04CF, r24	; 0x8004cf <Digits_disp>
    3fca:	80 91 cf 04 	lds	r24, 0x04CF	; 0x8004cf <Digits_disp>
    3fce:	82 30       	cpi	r24, 0x02	; 2
    3fd0:	24 f0       	brlt	.+8      	; 0x3fda <main+0x5e>
    3fd2:	80 91 cf 04 	lds	r24, 0x04CF	; 0x8004cf <Digits_disp>
    3fd6:	85 31       	cpi	r24, 0x15	; 21
    3fd8:	1c f0       	brlt	.+6      	; 0x3fe0 <main+0x64>
    3fda:	84 e0       	ldi	r24, 0x04	; 4
    3fdc:	80 93 cf 04 	sts	0x04CF, r24	; 0x8004cf <Digits_disp>
    3fe0:	0e 94 35 01 	call	0x26a	; 0x26a <Init_MBI>
    3fe4:	0e 94 7d 07 	call	0xefa	; 0xefa <Init_RF>
    3fe8:	83 e3       	ldi	r24, 0x33	; 51
    3fea:	90 e0       	ldi	r25, 0x00	; 0
    3fec:	0e 94 2d 06 	call	0xc5a	; 0xc5a <uart0_init>
    3ff0:	f8 94       	cli
    3ff2:	0e 94 e6 09 	call	0x13cc	; 0x13cc <photo_sample>
    3ff6:	12 98       	cbi	0x02, 2	; 2
    3ff8:	0e 94 49 01 	call	0x292	; 0x292 <DoLEDtest>
    3ffc:	0e 94 ea 01 	call	0x3d4	; 0x3d4 <RC5_Init>
    4000:	0e 94 b8 04 	call	0x970	; 0x970 <ds1302_init>
    4004:	6a 9a       	sbi	0x0d, 2	; 13
    4006:	82 e0       	ldi	r24, 0x02	; 2
    4008:	85 bd       	out	0x25, r24	; 37
    400a:	81 e0       	ldi	r24, 0x01	; 1
    400c:	80 93 6e 00 	sts	0x006E, r24	; 0x80006e <__TEXT_REGION_LENGTH__+0x7f806e>
    4010:	80 93 70 00 	sts	0x0070, r24	; 0x800070 <__TEXT_REGION_LENGTH__+0x7f8070>
    4014:	80 91 b6 00 	lds	r24, 0x00B6	; 0x8000b6 <__TEXT_REGION_LENGTH__+0x7f80b6>
    4018:	80 62       	ori	r24, 0x20	; 32
    401a:	80 93 b6 00 	sts	0x00B6, r24	; 0x8000b6 <__TEXT_REGION_LENGTH__+0x7f80b6>
    401e:	80 e4       	ldi	r24, 0x40	; 64
    4020:	80 93 90 00 	sts	0x0090, r24	; 0x800090 <__TEXT_REGION_LENGTH__+0x7f8090>
    4024:	80 e8       	ldi	r24, 0x80	; 128
    4026:	9e e3       	ldi	r25, 0x3E	; 62
    4028:	0e 94 2c 01 	call	0x258	; 0x258 <Buzzer.part.7>
    402c:	2f e7       	ldi	r18, 0x7F	; 127
    402e:	88 e3       	ldi	r24, 0x38	; 56
    4030:	91 e0       	ldi	r25, 0x01	; 1
    4032:	21 50       	subi	r18, 0x01	; 1
    4034:	80 40       	sbci	r24, 0x00	; 0
    4036:	90 40       	sbci	r25, 0x00	; 0
    4038:	e1 f7       	brne	.-8      	; 0x4032 <main+0xb6>
    403a:	00 c0       	rjmp	.+0      	; 0x403c <main+0xc0>
    403c:	00 00       	nop
    403e:	60 e0       	ldi	r22, 0x00	; 0
    4040:	70 e0       	ldi	r23, 0x00	; 0
    4042:	80 e0       	ldi	r24, 0x00	; 0
    4044:	0e 94 59 09 	call	0x12b2	; 0x12b2 <Buzzer>
    4048:	10 92 30 04 	sts	0x0430, r1	; 0x800430 <user_instruction>
    404c:	81 e0       	ldi	r24, 0x01	; 1
    404e:	0e 94 0e 0b 	call	0x161c	; 0x161c <display_init>
    4052:	0e 94 c8 0a 	call	0x1590	; 0x1590 <update_score_display>
    4056:	78 94       	sei
    4058:	0e 94 84 07 	call	0xf08	; 0xf08 <Display_Out>
    405c:	c1 e0       	ldi	r28, 0x01	; 1
    405e:	10 92 1d 04 	sts	0x041D, r1	; 0x80041d <Game_on>
    4062:	80 91 30 04 	lds	r24, 0x0430	; 0x800430 <user_instruction>
    4066:	88 23       	and	r24, r24
    4068:	d1 f3       	breq	.-12     	; 0x405e <main+0xe2>
    406a:	e0 91 30 04 	lds	r30, 0x0430	; 0x800430 <user_instruction>
    406e:	8e 2f       	mov	r24, r30
    4070:	ee 0f       	add	r30, r30
    4072:	99 0b       	sbc	r25, r25
    4074:	aa 0b       	sbc	r26, r26
    4076:	bb 0b       	sbc	r27, r27
    4078:	fc 01       	movw	r30, r24
    407a:	e1 54       	subi	r30, 0x41	; 65
    407c:	f1 09       	sbc	r31, r1
    407e:	e5 31       	cpi	r30, 0x15	; 21
    4080:	f1 05       	cpc	r31, r1
    4082:	78 f7       	brcc	.-34     	; 0x4062 <main+0xe6>
    4084:	ea 59       	subi	r30, 0x9A	; 154
    4086:	ff 4f       	sbci	r31, 0xFF	; 255
    4088:	0c 94 97 21 	jmp	0x432e	; 0x432e <__tablejump2__>
    408c:	c0 93 1d 04 	sts	0x041D, r28	; 0x80041d <Game_on>
    4090:	0e 94 c8 0a 	call	0x1590	; 0x1590 <update_score_display>
    4094:	81 e0       	ldi	r24, 0x01	; 1
    4096:	90 e0       	ldi	r25, 0x00	; 0
    4098:	06 c0       	rjmp	.+12     	; 0x40a6 <main+0x12a>
    409a:	c0 93 1d 04 	sts	0x041D, r28	; 0x80041d <Game_on>
    409e:	0e 94 c8 0a 	call	0x1590	; 0x1590 <update_score_display>
    40a2:	82 e0       	ldi	r24, 0x02	; 2
    40a4:	90 e0       	ldi	r25, 0x00	; 0
    40a6:	0e 94 d1 1e 	call	0x3da2	; 0x3da2 <Counter_down>
    40aa:	db cf       	rjmp	.-74     	; 0x4062 <main+0xe6>
    40ac:	c0 93 1d 04 	sts	0x041D, r28	; 0x80041d <Game_on>
    40b0:	0e 94 c8 0a 	call	0x1590	; 0x1590 <update_score_display>
    40b4:	0e 94 57 1f 	call	0x3eae	; 0x3eae <Up_counter>
    40b8:	d4 cf       	rjmp	.-88     	; 0x4062 <main+0xe6>
    40ba:	0e 94 74 10 	call	0x20e8	; 0x20e8 <Set_clock>
    40be:	d1 cf       	rjmp	.-94     	; 0x4062 <main+0xe6>
    40c0:	0e 94 79 12 	call	0x24f2	; 0x24f2 <Set_date>
    40c4:	ce cf       	rjmp	.-100    	; 0x4062 <main+0xe6>
    40c6:	0e 94 5e 13 	call	0x26bc	; 0x26bc <show_brightness>
    40ca:	cb cf       	rjmp	.-106    	; 0x4062 <main+0xe6>
    40cc:	0e 94 9b 0d 	call	0x1b36	; 0x1b36 <F_menu>
    40d0:	c8 cf       	rjmp	.-112    	; 0x4062 <main+0xe6>
    40d2:	0e 94 23 0f 	call	0x1e46	; 0x1e46 <FAV_menu>
    40d6:	c5 cf       	rjmp	.-118    	; 0x4062 <main+0xe6>
    40d8:	80 91 1e 04 	lds	r24, 0x041E	; 0x80041e <Set_countdown_bank>
    40dc:	0e 94 5e 11 	call	0x22bc	; 0x22bc <Set_countdown>
    40e0:	80 91 1e 04 	lds	r24, 0x041E	; 0x80041e <Set_countdown_bank>
    40e4:	82 30       	cpi	r24, 0x02	; 2
    40e6:	19 f0       	breq	.+6      	; 0x40ee <main+0x172>
    40e8:	84 30       	cpi	r24, 0x04	; 4
    40ea:	09 f0       	breq	.+2      	; 0x40ee <main+0x172>
    40ec:	ba cf       	rjmp	.-140    	; 0x4062 <main+0xe6>
    40ee:	0e 94 5e 11 	call	0x22bc	; 0x22bc <Set_countdown>
    40f2:	10 92 1e 04 	sts	0x041E, r1	; 0x80041e <Set_countdown_bank>
    40f6:	b5 cf       	rjmp	.-150    	; 0x4062 <main+0xe6>

000040f8 <__floatunsisf>:
    40f8:	e8 94       	clt
    40fa:	09 c0       	rjmp	.+18     	; 0x410e <__floatsisf+0x12>

000040fc <__floatsisf>:
    40fc:	97 fb       	bst	r25, 7
    40fe:	3e f4       	brtc	.+14     	; 0x410e <__floatsisf+0x12>
    4100:	90 95       	com	r25
    4102:	80 95       	com	r24
    4104:	70 95       	com	r23
    4106:	61 95       	neg	r22
    4108:	7f 4f       	sbci	r23, 0xFF	; 255
    410a:	8f 4f       	sbci	r24, 0xFF	; 255
    410c:	9f 4f       	sbci	r25, 0xFF	; 255
    410e:	99 23       	and	r25, r25
    4110:	a9 f0       	breq	.+42     	; 0x413c <__floatsisf+0x40>
    4112:	f9 2f       	mov	r31, r25
    4114:	96 e9       	ldi	r25, 0x96	; 150
    4116:	bb 27       	eor	r27, r27
    4118:	93 95       	inc	r25
    411a:	f6 95       	lsr	r31
    411c:	87 95       	ror	r24
    411e:	77 95       	ror	r23
    4120:	67 95       	ror	r22
    4122:	b7 95       	ror	r27
    4124:	f1 11       	cpse	r31, r1
    4126:	f8 cf       	rjmp	.-16     	; 0x4118 <__floatsisf+0x1c>
    4128:	fa f4       	brpl	.+62     	; 0x4168 <__floatsisf+0x6c>
    412a:	bb 0f       	add	r27, r27
    412c:	11 f4       	brne	.+4      	; 0x4132 <__floatsisf+0x36>
    412e:	60 ff       	sbrs	r22, 0
    4130:	1b c0       	rjmp	.+54     	; 0x4168 <__floatsisf+0x6c>
    4132:	6f 5f       	subi	r22, 0xFF	; 255
    4134:	7f 4f       	sbci	r23, 0xFF	; 255
    4136:	8f 4f       	sbci	r24, 0xFF	; 255
    4138:	9f 4f       	sbci	r25, 0xFF	; 255
    413a:	16 c0       	rjmp	.+44     	; 0x4168 <__floatsisf+0x6c>
    413c:	88 23       	and	r24, r24
    413e:	11 f0       	breq	.+4      	; 0x4144 <__floatsisf+0x48>
    4140:	96 e9       	ldi	r25, 0x96	; 150
    4142:	11 c0       	rjmp	.+34     	; 0x4166 <__floatsisf+0x6a>
    4144:	77 23       	and	r23, r23
    4146:	21 f0       	breq	.+8      	; 0x4150 <__floatsisf+0x54>
    4148:	9e e8       	ldi	r25, 0x8E	; 142
    414a:	87 2f       	mov	r24, r23
    414c:	76 2f       	mov	r23, r22
    414e:	05 c0       	rjmp	.+10     	; 0x415a <__floatsisf+0x5e>
    4150:	66 23       	and	r22, r22
    4152:	71 f0       	breq	.+28     	; 0x4170 <__floatsisf+0x74>
    4154:	96 e8       	ldi	r25, 0x86	; 134
    4156:	86 2f       	mov	r24, r22
    4158:	70 e0       	ldi	r23, 0x00	; 0
    415a:	60 e0       	ldi	r22, 0x00	; 0
    415c:	2a f0       	brmi	.+10     	; 0x4168 <__floatsisf+0x6c>
    415e:	9a 95       	dec	r25
    4160:	66 0f       	add	r22, r22
    4162:	77 1f       	adc	r23, r23
    4164:	88 1f       	adc	r24, r24
    4166:	da f7       	brpl	.-10     	; 0x415e <__floatsisf+0x62>
    4168:	88 0f       	add	r24, r24
    416a:	96 95       	lsr	r25
    416c:	87 95       	ror	r24
    416e:	97 f9       	bld	r25, 7
    4170:	08 95       	ret

00004172 <__mulsf3>:
    4172:	0e 94 cc 20 	call	0x4198	; 0x4198 <__mulsf3x>
    4176:	0c 94 3d 21 	jmp	0x427a	; 0x427a <__fp_round>
    417a:	0e 94 2f 21 	call	0x425e	; 0x425e <__fp_pscA>
    417e:	38 f0       	brcs	.+14     	; 0x418e <__mulsf3+0x1c>
    4180:	0e 94 36 21 	call	0x426c	; 0x426c <__fp_pscB>
    4184:	20 f0       	brcs	.+8      	; 0x418e <__mulsf3+0x1c>
    4186:	95 23       	and	r25, r21
    4188:	11 f0       	breq	.+4      	; 0x418e <__mulsf3+0x1c>
    418a:	0c 94 26 21 	jmp	0x424c	; 0x424c <__fp_inf>
    418e:	0c 94 2c 21 	jmp	0x4258	; 0x4258 <__fp_nan>
    4192:	11 24       	eor	r1, r1
    4194:	0c 94 71 21 	jmp	0x42e2	; 0x42e2 <__fp_szero>

00004198 <__mulsf3x>:
    4198:	0e 94 4e 21 	call	0x429c	; 0x429c <__fp_split3>
    419c:	70 f3       	brcs	.-36     	; 0x417a <__mulsf3+0x8>

0000419e <__mulsf3_pse>:
    419e:	95 9f       	mul	r25, r21
    41a0:	c1 f3       	breq	.-16     	; 0x4192 <__mulsf3+0x20>
    41a2:	95 0f       	add	r25, r21
    41a4:	50 e0       	ldi	r21, 0x00	; 0
    41a6:	55 1f       	adc	r21, r21
    41a8:	62 9f       	mul	r22, r18
    41aa:	f0 01       	movw	r30, r0
    41ac:	72 9f       	mul	r23, r18
    41ae:	bb 27       	eor	r27, r27
    41b0:	f0 0d       	add	r31, r0
    41b2:	b1 1d       	adc	r27, r1
    41b4:	63 9f       	mul	r22, r19
    41b6:	aa 27       	eor	r26, r26
    41b8:	f0 0d       	add	r31, r0
    41ba:	b1 1d       	adc	r27, r1
    41bc:	aa 1f       	adc	r26, r26
    41be:	64 9f       	mul	r22, r20
    41c0:	66 27       	eor	r22, r22
    41c2:	b0 0d       	add	r27, r0
    41c4:	a1 1d       	adc	r26, r1
    41c6:	66 1f       	adc	r22, r22
    41c8:	82 9f       	mul	r24, r18
    41ca:	22 27       	eor	r18, r18
    41cc:	b0 0d       	add	r27, r0
    41ce:	a1 1d       	adc	r26, r1
    41d0:	62 1f       	adc	r22, r18
    41d2:	73 9f       	mul	r23, r19
    41d4:	b0 0d       	add	r27, r0
    41d6:	a1 1d       	adc	r26, r1
    41d8:	62 1f       	adc	r22, r18
    41da:	83 9f       	mul	r24, r19
    41dc:	a0 0d       	add	r26, r0
    41de:	61 1d       	adc	r22, r1
    41e0:	22 1f       	adc	r18, r18
    41e2:	74 9f       	mul	r23, r20
    41e4:	33 27       	eor	r19, r19
    41e6:	a0 0d       	add	r26, r0
    41e8:	61 1d       	adc	r22, r1
    41ea:	23 1f       	adc	r18, r19
    41ec:	84 9f       	mul	r24, r20
    41ee:	60 0d       	add	r22, r0
    41f0:	21 1d       	adc	r18, r1
    41f2:	82 2f       	mov	r24, r18
    41f4:	76 2f       	mov	r23, r22
    41f6:	6a 2f       	mov	r22, r26
    41f8:	11 24       	eor	r1, r1
    41fa:	9f 57       	subi	r25, 0x7F	; 127
    41fc:	50 40       	sbci	r21, 0x00	; 0
    41fe:	9a f0       	brmi	.+38     	; 0x4226 <__mulsf3_pse+0x88>
    4200:	f1 f0       	breq	.+60     	; 0x423e <__mulsf3_pse+0xa0>
    4202:	88 23       	and	r24, r24
    4204:	4a f0       	brmi	.+18     	; 0x4218 <__mulsf3_pse+0x7a>
    4206:	ee 0f       	add	r30, r30
    4208:	ff 1f       	adc	r31, r31
    420a:	bb 1f       	adc	r27, r27
    420c:	66 1f       	adc	r22, r22
    420e:	77 1f       	adc	r23, r23
    4210:	88 1f       	adc	r24, r24
    4212:	91 50       	subi	r25, 0x01	; 1
    4214:	50 40       	sbci	r21, 0x00	; 0
    4216:	a9 f7       	brne	.-22     	; 0x4202 <__mulsf3_pse+0x64>
    4218:	9e 3f       	cpi	r25, 0xFE	; 254
    421a:	51 05       	cpc	r21, r1
    421c:	80 f0       	brcs	.+32     	; 0x423e <__mulsf3_pse+0xa0>
    421e:	0c 94 26 21 	jmp	0x424c	; 0x424c <__fp_inf>
    4222:	0c 94 71 21 	jmp	0x42e2	; 0x42e2 <__fp_szero>
    4226:	5f 3f       	cpi	r21, 0xFF	; 255
    4228:	e4 f3       	brlt	.-8      	; 0x4222 <__mulsf3_pse+0x84>
    422a:	98 3e       	cpi	r25, 0xE8	; 232
    422c:	d4 f3       	brlt	.-12     	; 0x4222 <__mulsf3_pse+0x84>
    422e:	86 95       	lsr	r24
    4230:	77 95       	ror	r23
    4232:	67 95       	ror	r22
    4234:	b7 95       	ror	r27
    4236:	f7 95       	ror	r31
    4238:	e7 95       	ror	r30
    423a:	9f 5f       	subi	r25, 0xFF	; 255
    423c:	c1 f7       	brne	.-16     	; 0x422e <__mulsf3_pse+0x90>
    423e:	fe 2b       	or	r31, r30
    4240:	88 0f       	add	r24, r24
    4242:	91 1d       	adc	r25, r1
    4244:	96 95       	lsr	r25
    4246:	87 95       	ror	r24
    4248:	97 f9       	bld	r25, 7
    424a:	08 95       	ret

0000424c <__fp_inf>:
    424c:	97 f9       	bld	r25, 7
    424e:	9f 67       	ori	r25, 0x7F	; 127
    4250:	80 e8       	ldi	r24, 0x80	; 128
    4252:	70 e0       	ldi	r23, 0x00	; 0
    4254:	60 e0       	ldi	r22, 0x00	; 0
    4256:	08 95       	ret

00004258 <__fp_nan>:
    4258:	9f ef       	ldi	r25, 0xFF	; 255
    425a:	80 ec       	ldi	r24, 0xC0	; 192
    425c:	08 95       	ret

0000425e <__fp_pscA>:
    425e:	00 24       	eor	r0, r0
    4260:	0a 94       	dec	r0
    4262:	16 16       	cp	r1, r22
    4264:	17 06       	cpc	r1, r23
    4266:	18 06       	cpc	r1, r24
    4268:	09 06       	cpc	r0, r25
    426a:	08 95       	ret

0000426c <__fp_pscB>:
    426c:	00 24       	eor	r0, r0
    426e:	0a 94       	dec	r0
    4270:	12 16       	cp	r1, r18
    4272:	13 06       	cpc	r1, r19
    4274:	14 06       	cpc	r1, r20
    4276:	05 06       	cpc	r0, r21
    4278:	08 95       	ret

0000427a <__fp_round>:
    427a:	09 2e       	mov	r0, r25
    427c:	03 94       	inc	r0
    427e:	00 0c       	add	r0, r0
    4280:	11 f4       	brne	.+4      	; 0x4286 <__fp_round+0xc>
    4282:	88 23       	and	r24, r24
    4284:	52 f0       	brmi	.+20     	; 0x429a <__fp_round+0x20>
    4286:	bb 0f       	add	r27, r27
    4288:	40 f4       	brcc	.+16     	; 0x429a <__fp_round+0x20>
    428a:	bf 2b       	or	r27, r31
    428c:	11 f4       	brne	.+4      	; 0x4292 <__fp_round+0x18>
    428e:	60 ff       	sbrs	r22, 0
    4290:	04 c0       	rjmp	.+8      	; 0x429a <__fp_round+0x20>
    4292:	6f 5f       	subi	r22, 0xFF	; 255
    4294:	7f 4f       	sbci	r23, 0xFF	; 255
    4296:	8f 4f       	sbci	r24, 0xFF	; 255
    4298:	9f 4f       	sbci	r25, 0xFF	; 255
    429a:	08 95       	ret

0000429c <__fp_split3>:
    429c:	57 fd       	sbrc	r21, 7
    429e:	90 58       	subi	r25, 0x80	; 128
    42a0:	44 0f       	add	r20, r20
    42a2:	55 1f       	adc	r21, r21
    42a4:	59 f0       	breq	.+22     	; 0x42bc <__fp_splitA+0x10>
    42a6:	5f 3f       	cpi	r21, 0xFF	; 255
    42a8:	71 f0       	breq	.+28     	; 0x42c6 <__fp_splitA+0x1a>
    42aa:	47 95       	ror	r20

000042ac <__fp_splitA>:
    42ac:	88 0f       	add	r24, r24
    42ae:	97 fb       	bst	r25, 7
    42b0:	99 1f       	adc	r25, r25
    42b2:	61 f0       	breq	.+24     	; 0x42cc <__fp_splitA+0x20>
    42b4:	9f 3f       	cpi	r25, 0xFF	; 255
    42b6:	79 f0       	breq	.+30     	; 0x42d6 <__fp_splitA+0x2a>
    42b8:	87 95       	ror	r24
    42ba:	08 95       	ret
    42bc:	12 16       	cp	r1, r18
    42be:	13 06       	cpc	r1, r19
    42c0:	14 06       	cpc	r1, r20
    42c2:	55 1f       	adc	r21, r21
    42c4:	f2 cf       	rjmp	.-28     	; 0x42aa <__fp_split3+0xe>
    42c6:	46 95       	lsr	r20
    42c8:	f1 df       	rcall	.-30     	; 0x42ac <__fp_splitA>
    42ca:	08 c0       	rjmp	.+16     	; 0x42dc <__fp_splitA+0x30>
    42cc:	16 16       	cp	r1, r22
    42ce:	17 06       	cpc	r1, r23
    42d0:	18 06       	cpc	r1, r24
    42d2:	99 1f       	adc	r25, r25
    42d4:	f1 cf       	rjmp	.-30     	; 0x42b8 <__fp_splitA+0xc>
    42d6:	86 95       	lsr	r24
    42d8:	71 05       	cpc	r23, r1
    42da:	61 05       	cpc	r22, r1
    42dc:	08 94       	sec
    42de:	08 95       	ret

000042e0 <__fp_zero>:
    42e0:	e8 94       	clt

000042e2 <__fp_szero>:
    42e2:	bb 27       	eor	r27, r27
    42e4:	66 27       	eor	r22, r22
    42e6:	77 27       	eor	r23, r23
    42e8:	cb 01       	movw	r24, r22
    42ea:	97 f9       	bld	r25, 7
    42ec:	08 95       	ret

000042ee <__udivmodqi4>:
    42ee:	99 1b       	sub	r25, r25
    42f0:	79 e0       	ldi	r23, 0x09	; 9
    42f2:	04 c0       	rjmp	.+8      	; 0x42fc <__udivmodqi4_ep>

000042f4 <__udivmodqi4_loop>:
    42f4:	99 1f       	adc	r25, r25
    42f6:	96 17       	cp	r25, r22
    42f8:	08 f0       	brcs	.+2      	; 0x42fc <__udivmodqi4_ep>
    42fa:	96 1b       	sub	r25, r22

000042fc <__udivmodqi4_ep>:
    42fc:	88 1f       	adc	r24, r24
    42fe:	7a 95       	dec	r23
    4300:	c9 f7       	brne	.-14     	; 0x42f4 <__udivmodqi4_loop>
    4302:	80 95       	com	r24
    4304:	08 95       	ret

00004306 <__udivmodhi4>:
    4306:	aa 1b       	sub	r26, r26
    4308:	bb 1b       	sub	r27, r27
    430a:	51 e1       	ldi	r21, 0x11	; 17
    430c:	07 c0       	rjmp	.+14     	; 0x431c <__udivmodhi4_ep>

0000430e <__udivmodhi4_loop>:
    430e:	aa 1f       	adc	r26, r26
    4310:	bb 1f       	adc	r27, r27
    4312:	a6 17       	cp	r26, r22
    4314:	b7 07       	cpc	r27, r23
    4316:	10 f0       	brcs	.+4      	; 0x431c <__udivmodhi4_ep>
    4318:	a6 1b       	sub	r26, r22
    431a:	b7 0b       	sbc	r27, r23

0000431c <__udivmodhi4_ep>:
    431c:	88 1f       	adc	r24, r24
    431e:	99 1f       	adc	r25, r25
    4320:	5a 95       	dec	r21
    4322:	a9 f7       	brne	.-22     	; 0x430e <__udivmodhi4_loop>
    4324:	80 95       	com	r24
    4326:	90 95       	com	r25
    4328:	bc 01       	movw	r22, r24
    432a:	cd 01       	movw	r24, r26
    432c:	08 95       	ret

0000432e <__tablejump2__>:
    432e:	ee 0f       	add	r30, r30
    4330:	ff 1f       	adc	r31, r31
    4332:	05 90       	lpm	r0, Z+
    4334:	f4 91       	lpm	r31, Z
    4336:	e0 2d       	mov	r30, r0
    4338:	09 94       	ijmp

0000433a <dtostrf>:
    433a:	ef 92       	push	r14
    433c:	0f 93       	push	r16
    433e:	1f 93       	push	r17
    4340:	cf 93       	push	r28
    4342:	df 93       	push	r29
    4344:	e8 01       	movw	r28, r16
    4346:	47 fd       	sbrc	r20, 7
    4348:	02 c0       	rjmp	.+4      	; 0x434e <dtostrf+0x14>
    434a:	34 e0       	ldi	r19, 0x04	; 4
    434c:	01 c0       	rjmp	.+2      	; 0x4350 <dtostrf+0x16>
    434e:	34 e1       	ldi	r19, 0x14	; 20
    4350:	04 2e       	mov	r0, r20
    4352:	00 0c       	add	r0, r0
    4354:	55 0b       	sbc	r21, r21
    4356:	57 ff       	sbrs	r21, 7
    4358:	03 c0       	rjmp	.+6      	; 0x4360 <dtostrf+0x26>
    435a:	51 95       	neg	r21
    435c:	41 95       	neg	r20
    435e:	51 09       	sbc	r21, r1
    4360:	e3 2e       	mov	r14, r19
    4362:	02 2f       	mov	r16, r18
    4364:	24 2f       	mov	r18, r20
    4366:	ae 01       	movw	r20, r28
    4368:	0e 94 e2 21 	call	0x43c4	; 0x43c4 <dtoa_prf>
    436c:	ce 01       	movw	r24, r28
    436e:	df 91       	pop	r29
    4370:	cf 91       	pop	r28
    4372:	1f 91       	pop	r17
    4374:	0f 91       	pop	r16
    4376:	ef 90       	pop	r14
    4378:	08 95       	ret

0000437a <__itoa_ncheck>:
    437a:	bb 27       	eor	r27, r27
    437c:	4a 30       	cpi	r20, 0x0A	; 10
    437e:	31 f4       	brne	.+12     	; 0x438c <__itoa_ncheck+0x12>
    4380:	99 23       	and	r25, r25
    4382:	22 f4       	brpl	.+8      	; 0x438c <__itoa_ncheck+0x12>
    4384:	bd e2       	ldi	r27, 0x2D	; 45
    4386:	90 95       	com	r25
    4388:	81 95       	neg	r24
    438a:	9f 4f       	sbci	r25, 0xFF	; 255
    438c:	0c 94 c9 21 	jmp	0x4392	; 0x4392 <__utoa_common>

00004390 <__utoa_ncheck>:
    4390:	bb 27       	eor	r27, r27

00004392 <__utoa_common>:
    4392:	fb 01       	movw	r30, r22
    4394:	55 27       	eor	r21, r21
    4396:	aa 27       	eor	r26, r26
    4398:	88 0f       	add	r24, r24
    439a:	99 1f       	adc	r25, r25
    439c:	aa 1f       	adc	r26, r26
    439e:	a4 17       	cp	r26, r20
    43a0:	10 f0       	brcs	.+4      	; 0x43a6 <__utoa_common+0x14>
    43a2:	a4 1b       	sub	r26, r20
    43a4:	83 95       	inc	r24
    43a6:	50 51       	subi	r21, 0x10	; 16
    43a8:	b9 f7       	brne	.-18     	; 0x4398 <__utoa_common+0x6>
    43aa:	a0 5d       	subi	r26, 0xD0	; 208
    43ac:	aa 33       	cpi	r26, 0x3A	; 58
    43ae:	08 f0       	brcs	.+2      	; 0x43b2 <__utoa_common+0x20>
    43b0:	a9 5d       	subi	r26, 0xD9	; 217
    43b2:	a1 93       	st	Z+, r26
    43b4:	00 97       	sbiw	r24, 0x00	; 0
    43b6:	79 f7       	brne	.-34     	; 0x4396 <__utoa_common+0x4>
    43b8:	b1 11       	cpse	r27, r1
    43ba:	b1 93       	st	Z+, r27
    43bc:	11 92       	st	Z+, r1
    43be:	cb 01       	movw	r24, r22
    43c0:	0c 94 14 24 	jmp	0x4828	; 0x4828 <strrev>

000043c4 <dtoa_prf>:
    43c4:	a9 e0       	ldi	r26, 0x09	; 9
    43c6:	b0 e0       	ldi	r27, 0x00	; 0
    43c8:	e8 ee       	ldi	r30, 0xE8	; 232
    43ca:	f1 e2       	ldi	r31, 0x21	; 33
    43cc:	0c 94 40 24 	jmp	0x4880	; 0x4880 <__prologue_saves__+0xc>
    43d0:	6a 01       	movw	r12, r20
    43d2:	12 2f       	mov	r17, r18
    43d4:	b0 2e       	mov	r11, r16
    43d6:	2b e3       	ldi	r18, 0x3B	; 59
    43d8:	20 17       	cp	r18, r16
    43da:	20 f0       	brcs	.+8      	; 0x43e4 <dtoa_prf+0x20>
    43dc:	ff 24       	eor	r15, r15
    43de:	f3 94       	inc	r15
    43e0:	f0 0e       	add	r15, r16
    43e2:	02 c0       	rjmp	.+4      	; 0x43e8 <dtoa_prf+0x24>
    43e4:	2c e3       	ldi	r18, 0x3C	; 60
    43e6:	f2 2e       	mov	r15, r18
    43e8:	0f 2d       	mov	r16, r15
    43ea:	27 e0       	ldi	r18, 0x07	; 7
    43ec:	ae 01       	movw	r20, r28
    43ee:	4f 5f       	subi	r20, 0xFF	; 255
    43f0:	5f 4f       	sbci	r21, 0xFF	; 255
    43f2:	0e 94 3c 23 	call	0x4678	; 0x4678 <__ftoa_engine>
    43f6:	bc 01       	movw	r22, r24
    43f8:	49 81       	ldd	r20, Y+1	; 0x01
    43fa:	84 2f       	mov	r24, r20
    43fc:	89 70       	andi	r24, 0x09	; 9
    43fe:	81 30       	cpi	r24, 0x01	; 1
    4400:	31 f0       	breq	.+12     	; 0x440e <dtoa_prf+0x4a>
    4402:	e1 fc       	sbrc	r14, 1
    4404:	06 c0       	rjmp	.+12     	; 0x4412 <dtoa_prf+0x4e>
    4406:	e0 fe       	sbrs	r14, 0
    4408:	06 c0       	rjmp	.+12     	; 0x4416 <dtoa_prf+0x52>
    440a:	90 e2       	ldi	r25, 0x20	; 32
    440c:	05 c0       	rjmp	.+10     	; 0x4418 <dtoa_prf+0x54>
    440e:	9d e2       	ldi	r25, 0x2D	; 45
    4410:	03 c0       	rjmp	.+6      	; 0x4418 <dtoa_prf+0x54>
    4412:	9b e2       	ldi	r25, 0x2B	; 43
    4414:	01 c0       	rjmp	.+2      	; 0x4418 <dtoa_prf+0x54>
    4416:	90 e0       	ldi	r25, 0x00	; 0
    4418:	5e 2d       	mov	r21, r14
    441a:	50 71       	andi	r21, 0x10	; 16
    441c:	43 ff       	sbrs	r20, 3
    441e:	3c c0       	rjmp	.+120    	; 0x4498 <dtoa_prf+0xd4>
    4420:	91 11       	cpse	r25, r1
    4422:	02 c0       	rjmp	.+4      	; 0x4428 <dtoa_prf+0x64>
    4424:	83 e0       	ldi	r24, 0x03	; 3
    4426:	01 c0       	rjmp	.+2      	; 0x442a <dtoa_prf+0x66>
    4428:	84 e0       	ldi	r24, 0x04	; 4
    442a:	81 17       	cp	r24, r17
    442c:	18 f4       	brcc	.+6      	; 0x4434 <dtoa_prf+0x70>
    442e:	21 2f       	mov	r18, r17
    4430:	28 1b       	sub	r18, r24
    4432:	01 c0       	rjmp	.+2      	; 0x4436 <dtoa_prf+0x72>
    4434:	20 e0       	ldi	r18, 0x00	; 0
    4436:	51 11       	cpse	r21, r1
    4438:	0b c0       	rjmp	.+22     	; 0x4450 <dtoa_prf+0x8c>
    443a:	f6 01       	movw	r30, r12
    443c:	82 2f       	mov	r24, r18
    443e:	30 e2       	ldi	r19, 0x20	; 32
    4440:	88 23       	and	r24, r24
    4442:	19 f0       	breq	.+6      	; 0x444a <dtoa_prf+0x86>
    4444:	31 93       	st	Z+, r19
    4446:	81 50       	subi	r24, 0x01	; 1
    4448:	fb cf       	rjmp	.-10     	; 0x4440 <dtoa_prf+0x7c>
    444a:	c2 0e       	add	r12, r18
    444c:	d1 1c       	adc	r13, r1
    444e:	20 e0       	ldi	r18, 0x00	; 0
    4450:	99 23       	and	r25, r25
    4452:	29 f0       	breq	.+10     	; 0x445e <dtoa_prf+0x9a>
    4454:	d6 01       	movw	r26, r12
    4456:	9c 93       	st	X, r25
    4458:	f6 01       	movw	r30, r12
    445a:	31 96       	adiw	r30, 0x01	; 1
    445c:	6f 01       	movw	r12, r30
    445e:	c6 01       	movw	r24, r12
    4460:	03 96       	adiw	r24, 0x03	; 3
    4462:	e2 fe       	sbrs	r14, 2
    4464:	0a c0       	rjmp	.+20     	; 0x447a <dtoa_prf+0xb6>
    4466:	3e e4       	ldi	r19, 0x4E	; 78
    4468:	d6 01       	movw	r26, r12
    446a:	3c 93       	st	X, r19
    446c:	41 e4       	ldi	r20, 0x41	; 65
    446e:	11 96       	adiw	r26, 0x01	; 1
    4470:	4c 93       	st	X, r20
    4472:	11 97       	sbiw	r26, 0x01	; 1
    4474:	12 96       	adiw	r26, 0x02	; 2
    4476:	3c 93       	st	X, r19
    4478:	06 c0       	rjmp	.+12     	; 0x4486 <dtoa_prf+0xc2>
    447a:	3e e6       	ldi	r19, 0x6E	; 110
    447c:	f6 01       	movw	r30, r12
    447e:	30 83       	st	Z, r19
    4480:	41 e6       	ldi	r20, 0x61	; 97
    4482:	41 83       	std	Z+1, r20	; 0x01
    4484:	32 83       	std	Z+2, r19	; 0x02
    4486:	fc 01       	movw	r30, r24
    4488:	32 2f       	mov	r19, r18
    448a:	40 e2       	ldi	r20, 0x20	; 32
    448c:	33 23       	and	r19, r19
    448e:	09 f4       	brne	.+2      	; 0x4492 <dtoa_prf+0xce>
    4490:	42 c0       	rjmp	.+132    	; 0x4516 <dtoa_prf+0x152>
    4492:	41 93       	st	Z+, r20
    4494:	31 50       	subi	r19, 0x01	; 1
    4496:	fa cf       	rjmp	.-12     	; 0x448c <dtoa_prf+0xc8>
    4498:	42 ff       	sbrs	r20, 2
    449a:	44 c0       	rjmp	.+136    	; 0x4524 <dtoa_prf+0x160>
    449c:	91 11       	cpse	r25, r1
    449e:	02 c0       	rjmp	.+4      	; 0x44a4 <dtoa_prf+0xe0>
    44a0:	83 e0       	ldi	r24, 0x03	; 3
    44a2:	01 c0       	rjmp	.+2      	; 0x44a6 <dtoa_prf+0xe2>
    44a4:	84 e0       	ldi	r24, 0x04	; 4
    44a6:	81 17       	cp	r24, r17
    44a8:	18 f4       	brcc	.+6      	; 0x44b0 <dtoa_prf+0xec>
    44aa:	21 2f       	mov	r18, r17
    44ac:	28 1b       	sub	r18, r24
    44ae:	01 c0       	rjmp	.+2      	; 0x44b2 <dtoa_prf+0xee>
    44b0:	20 e0       	ldi	r18, 0x00	; 0
    44b2:	51 11       	cpse	r21, r1
    44b4:	0b c0       	rjmp	.+22     	; 0x44cc <dtoa_prf+0x108>
    44b6:	f6 01       	movw	r30, r12
    44b8:	82 2f       	mov	r24, r18
    44ba:	30 e2       	ldi	r19, 0x20	; 32
    44bc:	88 23       	and	r24, r24
    44be:	19 f0       	breq	.+6      	; 0x44c6 <dtoa_prf+0x102>
    44c0:	31 93       	st	Z+, r19
    44c2:	81 50       	subi	r24, 0x01	; 1
    44c4:	fb cf       	rjmp	.-10     	; 0x44bc <dtoa_prf+0xf8>
    44c6:	c2 0e       	add	r12, r18
    44c8:	d1 1c       	adc	r13, r1
    44ca:	20 e0       	ldi	r18, 0x00	; 0
    44cc:	99 23       	and	r25, r25
    44ce:	29 f0       	breq	.+10     	; 0x44da <dtoa_prf+0x116>
    44d0:	d6 01       	movw	r26, r12
    44d2:	9c 93       	st	X, r25
    44d4:	f6 01       	movw	r30, r12
    44d6:	31 96       	adiw	r30, 0x01	; 1
    44d8:	6f 01       	movw	r12, r30
    44da:	c6 01       	movw	r24, r12
    44dc:	03 96       	adiw	r24, 0x03	; 3
    44de:	e2 fe       	sbrs	r14, 2
    44e0:	0b c0       	rjmp	.+22     	; 0x44f8 <dtoa_prf+0x134>
    44e2:	39 e4       	ldi	r19, 0x49	; 73
    44e4:	d6 01       	movw	r26, r12
    44e6:	3c 93       	st	X, r19
    44e8:	3e e4       	ldi	r19, 0x4E	; 78
    44ea:	11 96       	adiw	r26, 0x01	; 1
    44ec:	3c 93       	st	X, r19
    44ee:	11 97       	sbiw	r26, 0x01	; 1
    44f0:	36 e4       	ldi	r19, 0x46	; 70
    44f2:	12 96       	adiw	r26, 0x02	; 2
    44f4:	3c 93       	st	X, r19
    44f6:	07 c0       	rjmp	.+14     	; 0x4506 <dtoa_prf+0x142>
    44f8:	39 e6       	ldi	r19, 0x69	; 105
    44fa:	f6 01       	movw	r30, r12
    44fc:	30 83       	st	Z, r19
    44fe:	3e e6       	ldi	r19, 0x6E	; 110
    4500:	31 83       	std	Z+1, r19	; 0x01
    4502:	36 e6       	ldi	r19, 0x66	; 102
    4504:	32 83       	std	Z+2, r19	; 0x02
    4506:	fc 01       	movw	r30, r24
    4508:	32 2f       	mov	r19, r18
    450a:	40 e2       	ldi	r20, 0x20	; 32
    450c:	33 23       	and	r19, r19
    450e:	19 f0       	breq	.+6      	; 0x4516 <dtoa_prf+0x152>
    4510:	41 93       	st	Z+, r20
    4512:	31 50       	subi	r19, 0x01	; 1
    4514:	fb cf       	rjmp	.-10     	; 0x450c <dtoa_prf+0x148>
    4516:	fc 01       	movw	r30, r24
    4518:	e2 0f       	add	r30, r18
    451a:	f1 1d       	adc	r31, r1
    451c:	10 82       	st	Z, r1
    451e:	8e ef       	ldi	r24, 0xFE	; 254
    4520:	9f ef       	ldi	r25, 0xFF	; 255
    4522:	a6 c0       	rjmp	.+332    	; 0x4670 <dtoa_prf+0x2ac>
    4524:	21 e0       	ldi	r18, 0x01	; 1
    4526:	30 e0       	ldi	r19, 0x00	; 0
    4528:	91 11       	cpse	r25, r1
    452a:	02 c0       	rjmp	.+4      	; 0x4530 <dtoa_prf+0x16c>
    452c:	20 e0       	ldi	r18, 0x00	; 0
    452e:	30 e0       	ldi	r19, 0x00	; 0
    4530:	16 16       	cp	r1, r22
    4532:	17 06       	cpc	r1, r23
    4534:	1c f4       	brge	.+6      	; 0x453c <dtoa_prf+0x178>
    4536:	fb 01       	movw	r30, r22
    4538:	31 96       	adiw	r30, 0x01	; 1
    453a:	02 c0       	rjmp	.+4      	; 0x4540 <dtoa_prf+0x17c>
    453c:	e1 e0       	ldi	r30, 0x01	; 1
    453e:	f0 e0       	ldi	r31, 0x00	; 0
    4540:	2e 0f       	add	r18, r30
    4542:	3f 1f       	adc	r19, r31
    4544:	bb 20       	and	r11, r11
    4546:	21 f0       	breq	.+8      	; 0x4550 <dtoa_prf+0x18c>
    4548:	eb 2d       	mov	r30, r11
    454a:	f0 e0       	ldi	r31, 0x00	; 0
    454c:	31 96       	adiw	r30, 0x01	; 1
    454e:	02 c0       	rjmp	.+4      	; 0x4554 <dtoa_prf+0x190>
    4550:	e0 e0       	ldi	r30, 0x00	; 0
    4552:	f0 e0       	ldi	r31, 0x00	; 0
    4554:	2e 0f       	add	r18, r30
    4556:	3f 1f       	adc	r19, r31
    4558:	e1 2f       	mov	r30, r17
    455a:	f0 e0       	ldi	r31, 0x00	; 0
    455c:	2e 17       	cp	r18, r30
    455e:	3f 07       	cpc	r19, r31
    4560:	1c f4       	brge	.+6      	; 0x4568 <dtoa_prf+0x1a4>
    4562:	12 1b       	sub	r17, r18
    4564:	21 2f       	mov	r18, r17
    4566:	01 c0       	rjmp	.+2      	; 0x456a <dtoa_prf+0x1a6>
    4568:	20 e0       	ldi	r18, 0x00	; 0
    456a:	8e 2d       	mov	r24, r14
    456c:	88 71       	andi	r24, 0x18	; 24
    456e:	59 f4       	brne	.+22     	; 0x4586 <dtoa_prf+0x1c2>
    4570:	f6 01       	movw	r30, r12
    4572:	82 2f       	mov	r24, r18
    4574:	30 e2       	ldi	r19, 0x20	; 32
    4576:	88 23       	and	r24, r24
    4578:	19 f0       	breq	.+6      	; 0x4580 <dtoa_prf+0x1bc>
    457a:	31 93       	st	Z+, r19
    457c:	81 50       	subi	r24, 0x01	; 1
    457e:	fb cf       	rjmp	.-10     	; 0x4576 <dtoa_prf+0x1b2>
    4580:	c2 0e       	add	r12, r18
    4582:	d1 1c       	adc	r13, r1
    4584:	20 e0       	ldi	r18, 0x00	; 0
    4586:	99 23       	and	r25, r25
    4588:	29 f0       	breq	.+10     	; 0x4594 <dtoa_prf+0x1d0>
    458a:	d6 01       	movw	r26, r12
    458c:	9c 93       	st	X, r25
    458e:	f6 01       	movw	r30, r12
    4590:	31 96       	adiw	r30, 0x01	; 1
    4592:	6f 01       	movw	r12, r30
    4594:	51 11       	cpse	r21, r1
    4596:	0b c0       	rjmp	.+22     	; 0x45ae <dtoa_prf+0x1ea>
    4598:	f6 01       	movw	r30, r12
    459a:	82 2f       	mov	r24, r18
    459c:	90 e3       	ldi	r25, 0x30	; 48
    459e:	88 23       	and	r24, r24
    45a0:	19 f0       	breq	.+6      	; 0x45a8 <dtoa_prf+0x1e4>
    45a2:	91 93       	st	Z+, r25
    45a4:	81 50       	subi	r24, 0x01	; 1
    45a6:	fb cf       	rjmp	.-10     	; 0x459e <dtoa_prf+0x1da>
    45a8:	c2 0e       	add	r12, r18
    45aa:	d1 1c       	adc	r13, r1
    45ac:	20 e0       	ldi	r18, 0x00	; 0
    45ae:	0f 2d       	mov	r16, r15
    45b0:	06 0f       	add	r16, r22
    45b2:	9a 81       	ldd	r25, Y+2	; 0x02
    45b4:	34 2f       	mov	r19, r20
    45b6:	30 71       	andi	r19, 0x10	; 16
    45b8:	44 ff       	sbrs	r20, 4
    45ba:	03 c0       	rjmp	.+6      	; 0x45c2 <dtoa_prf+0x1fe>
    45bc:	91 33       	cpi	r25, 0x31	; 49
    45be:	09 f4       	brne	.+2      	; 0x45c2 <dtoa_prf+0x1fe>
    45c0:	01 50       	subi	r16, 0x01	; 1
    45c2:	10 16       	cp	r1, r16
    45c4:	24 f4       	brge	.+8      	; 0x45ce <dtoa_prf+0x20a>
    45c6:	09 30       	cpi	r16, 0x09	; 9
    45c8:	18 f0       	brcs	.+6      	; 0x45d0 <dtoa_prf+0x20c>
    45ca:	08 e0       	ldi	r16, 0x08	; 8
    45cc:	01 c0       	rjmp	.+2      	; 0x45d0 <dtoa_prf+0x20c>
    45ce:	01 e0       	ldi	r16, 0x01	; 1
    45d0:	ab 01       	movw	r20, r22
    45d2:	77 ff       	sbrs	r23, 7
    45d4:	02 c0       	rjmp	.+4      	; 0x45da <dtoa_prf+0x216>
    45d6:	40 e0       	ldi	r20, 0x00	; 0
    45d8:	50 e0       	ldi	r21, 0x00	; 0
    45da:	fb 01       	movw	r30, r22
    45dc:	e4 1b       	sub	r30, r20
    45de:	f5 0b       	sbc	r31, r21
    45e0:	a1 e0       	ldi	r26, 0x01	; 1
    45e2:	b0 e0       	ldi	r27, 0x00	; 0
    45e4:	ac 0f       	add	r26, r28
    45e6:	bd 1f       	adc	r27, r29
    45e8:	ea 0f       	add	r30, r26
    45ea:	fb 1f       	adc	r31, r27
    45ec:	8e e2       	ldi	r24, 0x2E	; 46
    45ee:	a8 2e       	mov	r10, r24
    45f0:	4b 01       	movw	r8, r22
    45f2:	80 1a       	sub	r8, r16
    45f4:	91 08       	sbc	r9, r1
    45f6:	0b 2d       	mov	r16, r11
    45f8:	10 e0       	ldi	r17, 0x00	; 0
    45fa:	11 95       	neg	r17
    45fc:	01 95       	neg	r16
    45fe:	11 09       	sbc	r17, r1
    4600:	4f 3f       	cpi	r20, 0xFF	; 255
    4602:	bf ef       	ldi	r27, 0xFF	; 255
    4604:	5b 07       	cpc	r21, r27
    4606:	21 f4       	brne	.+8      	; 0x4610 <dtoa_prf+0x24c>
    4608:	d6 01       	movw	r26, r12
    460a:	ac 92       	st	X, r10
    460c:	11 96       	adiw	r26, 0x01	; 1
    460e:	6d 01       	movw	r12, r26
    4610:	64 17       	cp	r22, r20
    4612:	75 07       	cpc	r23, r21
    4614:	2c f0       	brlt	.+10     	; 0x4620 <dtoa_prf+0x25c>
    4616:	84 16       	cp	r8, r20
    4618:	95 06       	cpc	r9, r21
    461a:	14 f4       	brge	.+4      	; 0x4620 <dtoa_prf+0x25c>
    461c:	81 81       	ldd	r24, Z+1	; 0x01
    461e:	01 c0       	rjmp	.+2      	; 0x4622 <dtoa_prf+0x25e>
    4620:	80 e3       	ldi	r24, 0x30	; 48
    4622:	41 50       	subi	r20, 0x01	; 1
    4624:	51 09       	sbc	r21, r1
    4626:	31 96       	adiw	r30, 0x01	; 1
    4628:	d6 01       	movw	r26, r12
    462a:	11 96       	adiw	r26, 0x01	; 1
    462c:	7d 01       	movw	r14, r26
    462e:	40 17       	cp	r20, r16
    4630:	51 07       	cpc	r21, r17
    4632:	24 f0       	brlt	.+8      	; 0x463c <dtoa_prf+0x278>
    4634:	d6 01       	movw	r26, r12
    4636:	8c 93       	st	X, r24
    4638:	67 01       	movw	r12, r14
    463a:	e2 cf       	rjmp	.-60     	; 0x4600 <dtoa_prf+0x23c>
    463c:	64 17       	cp	r22, r20
    463e:	75 07       	cpc	r23, r21
    4640:	39 f4       	brne	.+14     	; 0x4650 <dtoa_prf+0x28c>
    4642:	96 33       	cpi	r25, 0x36	; 54
    4644:	20 f4       	brcc	.+8      	; 0x464e <dtoa_prf+0x28a>
    4646:	95 33       	cpi	r25, 0x35	; 53
    4648:	19 f4       	brne	.+6      	; 0x4650 <dtoa_prf+0x28c>
    464a:	31 11       	cpse	r19, r1
    464c:	01 c0       	rjmp	.+2      	; 0x4650 <dtoa_prf+0x28c>
    464e:	81 e3       	ldi	r24, 0x31	; 49
    4650:	f6 01       	movw	r30, r12
    4652:	80 83       	st	Z, r24
    4654:	f7 01       	movw	r30, r14
    4656:	82 2f       	mov	r24, r18
    4658:	90 e2       	ldi	r25, 0x20	; 32
    465a:	88 23       	and	r24, r24
    465c:	19 f0       	breq	.+6      	; 0x4664 <dtoa_prf+0x2a0>
    465e:	91 93       	st	Z+, r25
    4660:	81 50       	subi	r24, 0x01	; 1
    4662:	fb cf       	rjmp	.-10     	; 0x465a <dtoa_prf+0x296>
    4664:	f7 01       	movw	r30, r14
    4666:	e2 0f       	add	r30, r18
    4668:	f1 1d       	adc	r31, r1
    466a:	10 82       	st	Z, r1
    466c:	80 e0       	ldi	r24, 0x00	; 0
    466e:	90 e0       	ldi	r25, 0x00	; 0
    4670:	29 96       	adiw	r28, 0x09	; 9
    4672:	ec e0       	ldi	r30, 0x0C	; 12
    4674:	0c 94 5c 24 	jmp	0x48b8	; 0x48b8 <__epilogue_restores__+0xc>

00004678 <__ftoa_engine>:
    4678:	28 30       	cpi	r18, 0x08	; 8
    467a:	08 f0       	brcs	.+2      	; 0x467e <__ftoa_engine+0x6>
    467c:	27 e0       	ldi	r18, 0x07	; 7
    467e:	33 27       	eor	r19, r19
    4680:	da 01       	movw	r26, r20
    4682:	99 0f       	add	r25, r25
    4684:	31 1d       	adc	r19, r1
    4686:	87 fd       	sbrc	r24, 7
    4688:	91 60       	ori	r25, 0x01	; 1
    468a:	00 96       	adiw	r24, 0x00	; 0
    468c:	61 05       	cpc	r22, r1
    468e:	71 05       	cpc	r23, r1
    4690:	39 f4       	brne	.+14     	; 0x46a0 <__ftoa_engine+0x28>
    4692:	32 60       	ori	r19, 0x02	; 2
    4694:	2e 5f       	subi	r18, 0xFE	; 254
    4696:	3d 93       	st	X+, r19
    4698:	30 e3       	ldi	r19, 0x30	; 48
    469a:	2a 95       	dec	r18
    469c:	e1 f7       	brne	.-8      	; 0x4696 <__ftoa_engine+0x1e>
    469e:	08 95       	ret
    46a0:	9f 3f       	cpi	r25, 0xFF	; 255
    46a2:	30 f0       	brcs	.+12     	; 0x46b0 <__ftoa_engine+0x38>
    46a4:	80 38       	cpi	r24, 0x80	; 128
    46a6:	71 05       	cpc	r23, r1
    46a8:	61 05       	cpc	r22, r1
    46aa:	09 f0       	breq	.+2      	; 0x46ae <__ftoa_engine+0x36>
    46ac:	3c 5f       	subi	r19, 0xFC	; 252
    46ae:	3c 5f       	subi	r19, 0xFC	; 252
    46b0:	3d 93       	st	X+, r19
    46b2:	91 30       	cpi	r25, 0x01	; 1
    46b4:	08 f0       	brcs	.+2      	; 0x46b8 <__ftoa_engine+0x40>
    46b6:	80 68       	ori	r24, 0x80	; 128
    46b8:	91 1d       	adc	r25, r1
    46ba:	df 93       	push	r29
    46bc:	cf 93       	push	r28
    46be:	1f 93       	push	r17
    46c0:	0f 93       	push	r16
    46c2:	ff 92       	push	r15
    46c4:	ef 92       	push	r14
    46c6:	19 2f       	mov	r17, r25
    46c8:	98 7f       	andi	r25, 0xF8	; 248
    46ca:	96 95       	lsr	r25
    46cc:	e9 2f       	mov	r30, r25
    46ce:	96 95       	lsr	r25
    46d0:	96 95       	lsr	r25
    46d2:	e9 0f       	add	r30, r25
    46d4:	ff 27       	eor	r31, r31
    46d6:	e0 5b       	subi	r30, 0xB0	; 176
    46d8:	fe 4f       	sbci	r31, 0xFE	; 254
    46da:	99 27       	eor	r25, r25
    46dc:	33 27       	eor	r19, r19
    46de:	ee 24       	eor	r14, r14
    46e0:	ff 24       	eor	r15, r15
    46e2:	a7 01       	movw	r20, r14
    46e4:	e7 01       	movw	r28, r14
    46e6:	05 90       	lpm	r0, Z+
    46e8:	08 94       	sec
    46ea:	07 94       	ror	r0
    46ec:	28 f4       	brcc	.+10     	; 0x46f8 <__ftoa_engine+0x80>
    46ee:	36 0f       	add	r19, r22
    46f0:	e7 1e       	adc	r14, r23
    46f2:	f8 1e       	adc	r15, r24
    46f4:	49 1f       	adc	r20, r25
    46f6:	51 1d       	adc	r21, r1
    46f8:	66 0f       	add	r22, r22
    46fa:	77 1f       	adc	r23, r23
    46fc:	88 1f       	adc	r24, r24
    46fe:	99 1f       	adc	r25, r25
    4700:	06 94       	lsr	r0
    4702:	a1 f7       	brne	.-24     	; 0x46ec <__ftoa_engine+0x74>
    4704:	05 90       	lpm	r0, Z+
    4706:	07 94       	ror	r0
    4708:	28 f4       	brcc	.+10     	; 0x4714 <__ftoa_engine+0x9c>
    470a:	e7 0e       	add	r14, r23
    470c:	f8 1e       	adc	r15, r24
    470e:	49 1f       	adc	r20, r25
    4710:	56 1f       	adc	r21, r22
    4712:	c1 1d       	adc	r28, r1
    4714:	77 0f       	add	r23, r23
    4716:	88 1f       	adc	r24, r24
    4718:	99 1f       	adc	r25, r25
    471a:	66 1f       	adc	r22, r22
    471c:	06 94       	lsr	r0
    471e:	a1 f7       	brne	.-24     	; 0x4708 <__ftoa_engine+0x90>
    4720:	05 90       	lpm	r0, Z+
    4722:	07 94       	ror	r0
    4724:	28 f4       	brcc	.+10     	; 0x4730 <__ftoa_engine+0xb8>
    4726:	f8 0e       	add	r15, r24
    4728:	49 1f       	adc	r20, r25
    472a:	56 1f       	adc	r21, r22
    472c:	c7 1f       	adc	r28, r23
    472e:	d1 1d       	adc	r29, r1
    4730:	88 0f       	add	r24, r24
    4732:	99 1f       	adc	r25, r25
    4734:	66 1f       	adc	r22, r22
    4736:	77 1f       	adc	r23, r23
    4738:	06 94       	lsr	r0
    473a:	a1 f7       	brne	.-24     	; 0x4724 <__ftoa_engine+0xac>
    473c:	05 90       	lpm	r0, Z+
    473e:	07 94       	ror	r0
    4740:	20 f4       	brcc	.+8      	; 0x474a <__ftoa_engine+0xd2>
    4742:	49 0f       	add	r20, r25
    4744:	56 1f       	adc	r21, r22
    4746:	c7 1f       	adc	r28, r23
    4748:	d8 1f       	adc	r29, r24
    474a:	99 0f       	add	r25, r25
    474c:	66 1f       	adc	r22, r22
    474e:	77 1f       	adc	r23, r23
    4750:	88 1f       	adc	r24, r24
    4752:	06 94       	lsr	r0
    4754:	a9 f7       	brne	.-22     	; 0x4740 <__ftoa_engine+0xc8>
    4756:	84 91       	lpm	r24, Z
    4758:	10 95       	com	r17
    475a:	17 70       	andi	r17, 0x07	; 7
    475c:	41 f0       	breq	.+16     	; 0x476e <__ftoa_engine+0xf6>
    475e:	d6 95       	lsr	r29
    4760:	c7 95       	ror	r28
    4762:	57 95       	ror	r21
    4764:	47 95       	ror	r20
    4766:	f7 94       	ror	r15
    4768:	e7 94       	ror	r14
    476a:	1a 95       	dec	r17
    476c:	c1 f7       	brne	.-16     	; 0x475e <__ftoa_engine+0xe6>
    476e:	e6 ef       	ldi	r30, 0xF6	; 246
    4770:	f0 e0       	ldi	r31, 0x00	; 0
    4772:	68 94       	set
    4774:	15 90       	lpm	r1, Z+
    4776:	15 91       	lpm	r17, Z+
    4778:	35 91       	lpm	r19, Z+
    477a:	65 91       	lpm	r22, Z+
    477c:	95 91       	lpm	r25, Z+
    477e:	05 90       	lpm	r0, Z+
    4780:	7f e2       	ldi	r23, 0x2F	; 47
    4782:	73 95       	inc	r23
    4784:	e1 18       	sub	r14, r1
    4786:	f1 0a       	sbc	r15, r17
    4788:	43 0b       	sbc	r20, r19
    478a:	56 0b       	sbc	r21, r22
    478c:	c9 0b       	sbc	r28, r25
    478e:	d0 09       	sbc	r29, r0
    4790:	c0 f7       	brcc	.-16     	; 0x4782 <__ftoa_engine+0x10a>
    4792:	e1 0c       	add	r14, r1
    4794:	f1 1e       	adc	r15, r17
    4796:	43 1f       	adc	r20, r19
    4798:	56 1f       	adc	r21, r22
    479a:	c9 1f       	adc	r28, r25
    479c:	d0 1d       	adc	r29, r0
    479e:	7e f4       	brtc	.+30     	; 0x47be <__ftoa_engine+0x146>
    47a0:	70 33       	cpi	r23, 0x30	; 48
    47a2:	11 f4       	brne	.+4      	; 0x47a8 <__ftoa_engine+0x130>
    47a4:	8a 95       	dec	r24
    47a6:	e6 cf       	rjmp	.-52     	; 0x4774 <__ftoa_engine+0xfc>
    47a8:	e8 94       	clt
    47aa:	01 50       	subi	r16, 0x01	; 1
    47ac:	30 f0       	brcs	.+12     	; 0x47ba <__ftoa_engine+0x142>
    47ae:	08 0f       	add	r16, r24
    47b0:	0a f4       	brpl	.+2      	; 0x47b4 <__ftoa_engine+0x13c>
    47b2:	00 27       	eor	r16, r16
    47b4:	02 17       	cp	r16, r18
    47b6:	08 f4       	brcc	.+2      	; 0x47ba <__ftoa_engine+0x142>
    47b8:	20 2f       	mov	r18, r16
    47ba:	23 95       	inc	r18
    47bc:	02 2f       	mov	r16, r18
    47be:	7a 33       	cpi	r23, 0x3A	; 58
    47c0:	28 f0       	brcs	.+10     	; 0x47cc <__ftoa_engine+0x154>
    47c2:	79 e3       	ldi	r23, 0x39	; 57
    47c4:	7d 93       	st	X+, r23
    47c6:	2a 95       	dec	r18
    47c8:	e9 f7       	brne	.-6      	; 0x47c4 <__ftoa_engine+0x14c>
    47ca:	10 c0       	rjmp	.+32     	; 0x47ec <__ftoa_engine+0x174>
    47cc:	7d 93       	st	X+, r23
    47ce:	2a 95       	dec	r18
    47d0:	89 f6       	brne	.-94     	; 0x4774 <__ftoa_engine+0xfc>
    47d2:	06 94       	lsr	r0
    47d4:	97 95       	ror	r25
    47d6:	67 95       	ror	r22
    47d8:	37 95       	ror	r19
    47da:	17 95       	ror	r17
    47dc:	17 94       	ror	r1
    47de:	e1 18       	sub	r14, r1
    47e0:	f1 0a       	sbc	r15, r17
    47e2:	43 0b       	sbc	r20, r19
    47e4:	56 0b       	sbc	r21, r22
    47e6:	c9 0b       	sbc	r28, r25
    47e8:	d0 09       	sbc	r29, r0
    47ea:	98 f0       	brcs	.+38     	; 0x4812 <__ftoa_engine+0x19a>
    47ec:	23 95       	inc	r18
    47ee:	7e 91       	ld	r23, -X
    47f0:	73 95       	inc	r23
    47f2:	7a 33       	cpi	r23, 0x3A	; 58
    47f4:	08 f0       	brcs	.+2      	; 0x47f8 <__ftoa_engine+0x180>
    47f6:	70 e3       	ldi	r23, 0x30	; 48
    47f8:	7c 93       	st	X, r23
    47fa:	20 13       	cpse	r18, r16
    47fc:	b8 f7       	brcc	.-18     	; 0x47ec <__ftoa_engine+0x174>
    47fe:	7e 91       	ld	r23, -X
    4800:	70 61       	ori	r23, 0x10	; 16
    4802:	7d 93       	st	X+, r23
    4804:	30 f0       	brcs	.+12     	; 0x4812 <__ftoa_engine+0x19a>
    4806:	83 95       	inc	r24
    4808:	71 e3       	ldi	r23, 0x31	; 49
    480a:	7d 93       	st	X+, r23
    480c:	70 e3       	ldi	r23, 0x30	; 48
    480e:	2a 95       	dec	r18
    4810:	e1 f7       	brne	.-8      	; 0x480a <__ftoa_engine+0x192>
    4812:	11 24       	eor	r1, r1
    4814:	ef 90       	pop	r14
    4816:	ff 90       	pop	r15
    4818:	0f 91       	pop	r16
    481a:	1f 91       	pop	r17
    481c:	cf 91       	pop	r28
    481e:	df 91       	pop	r29
    4820:	99 27       	eor	r25, r25
    4822:	87 fd       	sbrc	r24, 7
    4824:	90 95       	com	r25
    4826:	08 95       	ret

00004828 <strrev>:
    4828:	dc 01       	movw	r26, r24
    482a:	fc 01       	movw	r30, r24
    482c:	67 2f       	mov	r22, r23
    482e:	71 91       	ld	r23, Z+
    4830:	77 23       	and	r23, r23
    4832:	e1 f7       	brne	.-8      	; 0x482c <strrev+0x4>
    4834:	32 97       	sbiw	r30, 0x02	; 2
    4836:	04 c0       	rjmp	.+8      	; 0x4840 <strrev+0x18>
    4838:	7c 91       	ld	r23, X
    483a:	6d 93       	st	X+, r22
    483c:	70 83       	st	Z, r23
    483e:	62 91       	ld	r22, -Z
    4840:	ae 17       	cp	r26, r30
    4842:	bf 07       	cpc	r27, r31
    4844:	c8 f3       	brcs	.-14     	; 0x4838 <strrev+0x10>
    4846:	08 95       	ret

00004848 <eeprom_read_byte>:
    4848:	f9 99       	sbic	0x1f, 1	; 31
    484a:	fe cf       	rjmp	.-4      	; 0x4848 <eeprom_read_byte>
    484c:	92 bd       	out	0x22, r25	; 34
    484e:	81 bd       	out	0x21, r24	; 33
    4850:	f8 9a       	sbi	0x1f, 0	; 31
    4852:	99 27       	eor	r25, r25
    4854:	80 b5       	in	r24, 0x20	; 32
    4856:	08 95       	ret

00004858 <eeprom_write_byte>:
    4858:	26 2f       	mov	r18, r22

0000485a <eeprom_write_r18>:
    485a:	f9 99       	sbic	0x1f, 1	; 31
    485c:	fe cf       	rjmp	.-4      	; 0x485a <eeprom_write_r18>
    485e:	1f ba       	out	0x1f, r1	; 31
    4860:	92 bd       	out	0x22, r25	; 34
    4862:	81 bd       	out	0x21, r24	; 33
    4864:	20 bd       	out	0x20, r18	; 32
    4866:	0f b6       	in	r0, 0x3f	; 63
    4868:	f8 94       	cli
    486a:	fa 9a       	sbi	0x1f, 2	; 31
    486c:	f9 9a       	sbi	0x1f, 1	; 31
    486e:	0f be       	out	0x3f, r0	; 63
    4870:	01 96       	adiw	r24, 0x01	; 1
    4872:	08 95       	ret

00004874 <__prologue_saves__>:
    4874:	2f 92       	push	r2
    4876:	3f 92       	push	r3
    4878:	4f 92       	push	r4
    487a:	5f 92       	push	r5
    487c:	6f 92       	push	r6
    487e:	7f 92       	push	r7
    4880:	8f 92       	push	r8
    4882:	9f 92       	push	r9
    4884:	af 92       	push	r10
    4886:	bf 92       	push	r11
    4888:	cf 92       	push	r12
    488a:	df 92       	push	r13
    488c:	ef 92       	push	r14
    488e:	ff 92       	push	r15
    4890:	0f 93       	push	r16
    4892:	1f 93       	push	r17
    4894:	cf 93       	push	r28
    4896:	df 93       	push	r29
    4898:	cd b7       	in	r28, 0x3d	; 61
    489a:	de b7       	in	r29, 0x3e	; 62
    489c:	ca 1b       	sub	r28, r26
    489e:	db 0b       	sbc	r29, r27
    48a0:	0f b6       	in	r0, 0x3f	; 63
    48a2:	f8 94       	cli
    48a4:	de bf       	out	0x3e, r29	; 62
    48a6:	0f be       	out	0x3f, r0	; 63
    48a8:	cd bf       	out	0x3d, r28	; 61
    48aa:	09 94       	ijmp

000048ac <__epilogue_restores__>:
    48ac:	2a 88       	ldd	r2, Y+18	; 0x12
    48ae:	39 88       	ldd	r3, Y+17	; 0x11
    48b0:	48 88       	ldd	r4, Y+16	; 0x10
    48b2:	5f 84       	ldd	r5, Y+15	; 0x0f
    48b4:	6e 84       	ldd	r6, Y+14	; 0x0e
    48b6:	7d 84       	ldd	r7, Y+13	; 0x0d
    48b8:	8c 84       	ldd	r8, Y+12	; 0x0c
    48ba:	9b 84       	ldd	r9, Y+11	; 0x0b
    48bc:	aa 84       	ldd	r10, Y+10	; 0x0a
    48be:	b9 84       	ldd	r11, Y+9	; 0x09
    48c0:	c8 84       	ldd	r12, Y+8	; 0x08
    48c2:	df 80       	ldd	r13, Y+7	; 0x07
    48c4:	ee 80       	ldd	r14, Y+6	; 0x06
    48c6:	fd 80       	ldd	r15, Y+5	; 0x05
    48c8:	0c 81       	ldd	r16, Y+4	; 0x04
    48ca:	1b 81       	ldd	r17, Y+3	; 0x03
    48cc:	aa 81       	ldd	r26, Y+2	; 0x02
    48ce:	b9 81       	ldd	r27, Y+1	; 0x01
    48d0:	ce 0f       	add	r28, r30
    48d2:	d1 1d       	adc	r29, r1
    48d4:	0f b6       	in	r0, 0x3f	; 63
    48d6:	f8 94       	cli
    48d8:	de bf       	out	0x3e, r29	; 62
    48da:	0f be       	out	0x3f, r0	; 63
    48dc:	cd bf       	out	0x3d, r28	; 61
    48de:	ed 01       	movw	r28, r26
    48e0:	08 95       	ret

000048e2 <_exit>:
    48e2:	f8 94       	cli

000048e4 <__stop_program>:
    48e4:	ff cf       	rjmp	.-2      	; 0x48e4 <__stop_program>
